ccopy_reg
_reconstructor
p0
(clrsgd
LogisticRegressionSGD
p1
c__builtin__
object
p2
Ntp3
Rp4
(dp5
Veta
p6
F0.3
sVmu
p7
F0.2
sVweight
p8
(lp9
F-2.606486600100898e-50
aF0.0
aF3.251883676284589e-52
aF-3.461739782154584e-112
aF-5.364059604896963e-131
aF-0.02536589903273383
aF-6.982864768011707e-12
aF-0.07218445272066466
aF-1.475894232693367e-63
aF1.0141238125176319e-106
aF-5.025471172766063e-56
aF-3.1500527077620052e-58
aF-4.306167326104e-21
aF-4.36080418290051e-121
aF1.977517731783608e-60
aF-8.03862878499901e-59
aF-9.358732844463829e-25
aF-1.5254300793564954e-104
aF-1.207569577060236e-66
aF3.38055723946863e-40
aF-3.175154758632797e-07
aF-3.7322138764631494e-89
aF-1.0933959076355521e-160
aF-1.1199028678546472e-64
aF-6.567445160508586e-96
aF6.65791946637666e-115
aF3.7646053157877914e-132
aF3.1400787080558287e-40
aF-1.3875404306421966e-118
aF1.946147614669083e-10
aF1.2893755989103879e-23
aF-5.088388961644558e-75
aF-6.0532712751099155e-09
aF-2.665466146530935e-05
aF-6.519035869721842e-42
aF4.3055810063873463e-19
aF0.0
aF0.0
aF-2.3075517182253324e-11
aF-1.029551718457276e-41
aF-8.952812737650745e-95
aF-8.933023022180222e-29
aF-2.9380585538263375e-07
aF-2.3209097549604967e-20
aF4.6578651360110364e-135
aF-2.2272220654229818e-37
aF-4.4937609759559576e-05
aF-3.524473852484929e-69
aF-1.6408571948391864e-41
aF1.5483023236326627e-11
aF-6.460711543973274e-12
aF-5.969396081579374e-156
aF-1.8021409825162368e-11
aF-4.361475543643451e-42
aF1.4068260049137067e-25
aF-4.3717350406644536e-47
aF-0.029543957634704188
aF-1.207393942856595e-05
aF2.3567206731833245e-99
aF8.943701224471461e-06
aF-0.011708120729327174
aF1.0187710158318238e-42
aF-1.5325836072700317e-11
aF-4.527690035409883e-20
aF-3.4679046005592497e-74
aF-4.206498635747632e-128
aF-9.447299477578175e-30
aF0.0
aF2.487461320245185e-14
aF6.5789232887115135e-22
aF-0.00015593673039847555
aF-2.162306625513593e-11
aF-2.972665106328563e-84
aF-8.649418866133013e-05
aF5.71859377633895e-139
aF-0.011682812808628294
aF-6.953457639147065e-21
aF1.8297773909513498e-05
aF-7.008113694158654e-144
aF1.0146821130632323e-158
aF0.0
aF-1.322352790729459e-38
aF-7.086614187537903e-12
aF-8.524851018417582e-143
aF-3.983803758380567e-21
aF-7.988338586078536e-17
aF-0.014331825954705203
aF-3.014250015812434e-73
aF0.0
aF-8.722820872682906e-110
aF-0.00022421096708904092
aF-8.999933025677513e-117
aF0.0
aF-2.0477836314129344e-27
aF-0.024178146415930184
aF-1.6299857330988227e-138
aF-2.4549851057164063e-18
aF0.0
aF-0.015142483825887197
aF-7.58525072335737e-48
aF-2.1522461504851272e-134
aF-9.380970177715528e-161
aF-1.0882723790866835e-19
aF0.0
aF-1.972815939004592e-30
aF-5.375160434188425e-43
aF-0.04549624633606691
aF-9.99212167377528e-151
aF-2.396573474862257e-19
aF-4.102519155163574e-166
aF-1.7817217766137815e-10
aF-6.3234527900868e-23
aF-1.3791773882397584e-09
aF-0.0002975742999617075
aF0.0
aF0.0
aF-0.04928764173738924
aF-1.6346719019314745e-13
aF-3.389279617301405e-39
aF1.7023328157641934e-19
aF-1.2017422692396497e-30
aF-5.612854877334532e-09
aF-0.0003199930660660371
aF0.0
aF-4.500135504383596e-50
aF-1.8877524350712208e-152
aF-8.288217181204432e-29
aF-2.955511434226744e-136
aF1.55158915639e-26
aF1.755209846362192e-130
aF-3.688686096390297e-21
aF-1.5080226793878773e-138
aF1.2469735187954538e-07
aF-8.783280086590443e-154
aF-3.79284886190343e-114
aF6.367279765723464e-05
aF3.0140479730010708e-52
aF0.0
aF-2.570512243869762e-131
aF-4.196829840252841e-46
aF-6.180677103081402e-14
aF-0.002890368192128511
aF-2.5483722525311417e-21
aF4.595324118767954e-49
aF-4.998353265725989e-162
aF-2.9324275013405305e-29
aF-3.1334881726493806e-145
aF-0.00013369244589272536
aF1.4419382032681513e-26
aF-3.3630811069508774e-45
aF-7.716155973628268e-68
aF0.0
aF7.700759471604505e-08
aF-6.882661930531208e-33
aF-6.914001068818693e-08
aF-2.7216396257832175e-07
aF2.7772613644080702e-08
aF0.0
aF-1.2926374746126465e-11
aF-8.827086387643541e-31
aF6.191017063852502e-78
aF-0.0009714542305243687
aF-0.01785083539553031
aF1.5827624819513053e-23
aF-0.0014411902787684042
aF-1.9695791457789785e-07
aF-1.43743651996754e-16
aF-1.4359219473180865e-157
aF-8.016252962757779e-25
aF-4.310721832374253e-38
aF-5.005938495537777e-40
aF-0.09021367662608455
aF-3.36542067307687e-38
aF-1.1420546315455347e-84
aF-1.9959673813355035e-11
aF2.3018160188171087e-14
aF-3.4404955234744864e-134
aF-0.007886013939621449
aF-1.0565409205994472e-38
aF-2.966957504158028e-128
aF-6.842192875274723e-28
aF-4.0538599257008257e-47
aF9.314848541379603e-159
aF-0.010245545857655365
aF-0.008920488848028168
aF-2.5921962961480463e-47
aF-1.0413814734571762e-27
aF-7.76528953211665e-50
aF-0.00592658846977631
aF-5.503168894791286e-84
aF-3.482624563644425e-06
aF-0.10347809628687593
aF-1.315365275603649e-162
aF-0.05943989350908316
aF-1.356744792151001e-80
aF-0.03943698153307138
aF-2.2353055102080324e-08
aF1.0297800644205628e-86
aF-0.0060344275643683856
aF-7.727415903442839e-58
aF-3.2440355768657345e-55
aF-5.7007693652440046e-36
aF-0.00041701863834881875
aF-6.916664407002674e-51
aF-1.3193977301000979e-89
aF-7.455024830307291e-131
aF-2.236966917464903e-34
aF-1.8040938316442035e-95
aF-3.58478099493696e-114
aF-1.2777576443475836e-10
aF-3.9397713446743634e-117
aF-2.1739391341109603e-81
aF-7.54301662264691e-95
aF-9.0402308401575e-33
aF6.234929381831858e-13
aF5.160628205455273e-133
aF-1.793942437041513e-110
aF-2.4723171589850064e-53
aF-0.03726572175719693
aF-1.2024463391021022e-08
aF-9.18514291043804e-24
aF-3.196394165866984e-47
aF-3.694802561631047e-129
aF-7.296930566844146e-10
aF-6.397560868312507e-124
aF-9.883147549257278e-97
aF-4.676934167392616e-09
aF-0.053293049361301886
aF-0.001971017969240912
aF-7.5255832516237095e-65
aF-5.915282115546464e-35
aF-2.726820053722182e-21
aF0.0
aF0.0
aF5.308442492817655e-139
aF-6.897327175253126e-131
aF-1.0516951095320941e-38
aF-1.3963061642855299e-50
aF-6.811341598332264e-154
aF-0.03112673685224089
aF-0.07059416826325607
aF-1.6968620827695095e-88
aF-1.3517739282897184e-05
aF1.8311424441593888e-25
aF-2.2221009709250075e-160
aF1.606302696020543e-123
aF-0.11292382757291795
aF0.0
aF-0.0008688262631556193
aF-7.558788650632563e-80
aF-1.3357244786785331e-98
aF-2.178101513700758e-120
aF4.774303560343587e-12
aF-6.505803655740145e-102
aF-1.9443454593647736e-74
aF1.1041582949369534e-88
aF-7.436178016253386e-59
aF-2.8651694660922667e-15
aF-2.6654292054306274e-55
aF-1.3005500441813469e-34
aF-9.351334791933517e-15
aF-1.8735174126642278e-118
aF-2.338863954569463e-34
aF-3.5702372115385128e-158
aF-4.4585582805770164e-07
aF-2.957942325777525e-08
aF-0.0010665248866713933
aF1.6962893425006138e-25
aF-7.302582186153716e-143
aF-8.663382872058783e-15
aF0.0006533509746209792
aF-2.4390147468085646e-165
aF-1.2888072295109499e-160
aF-0.0009130352445331745
aF-3.764937647387983e-42
aF-1.1075319073467073e-14
aF0.0
aF-1.071189009367541e-58
aF-5.231121692455097e-24
aF-1.5327209490584076e-97
aF0.0
aF-1.5300905173996015e-06
aF-9.199127907334972e-09
aF0.0
aF1.4204057770502402e-11
aF-9.206637980945485e-111
aF-1.9847309510198325e-07
aF-2.085660074433095e-05
aF1.1438619749942303e-26
aF1.4743245176311722e-153
aF0.0
aF1.2877908405229927e-44
aF4.942715270749949e-126
aF-8.754607942524949e-30
aF-1.1074309742538984e-77
aF-2.962442023973278e-45
aF-2.0700523839923423e-80
aF-4.610675992351598e-20
aF-1.8794101715150968e-59
aF-4.842740822498785e-24
aF-3.558372321620038e-13
aF0.0
aF-2.3032834081311436e-44
aF-1.0280736183224319e-14
aF6.949214063548132e-132
aF-1.6623540501732547e-110
aF-0.031046213156873836
aF-2.5167972675750602e-145
aF0.0
aF2.00088382722455e-99
aF5.6120005511621404e-30
aF-3.6363674734746174e-50
aF-1.9509497827644246e-18
aF-4.465722890518066e-116
aF-5.586422934392779e-09
aF-0.0015859716094018018
aF-8.940132974674048e-34
aF-0.021239408718022962
aF-1.1902114174311193e-36
aF0.0
aF-1.597239922412053e-05
aF-1.3745452565631773e-40
aF-8.701794819257353e-74
aF-2.430450788612392e-134
aF-3.1359676511645467e-39
aF-0.0013338044258655115
aF-2.0089528769232335e-29
aF-1.5229717065758918e-33
aF-2.330988911881762e-145
aF-0.0030974147868011357
aF0.0
aF-1.9306669883358634e-05
aF-5.69798569304777e-125
aF-1.1013836933874644e-36
aF-4.8449688971096485e-52
aF-0.1064314508610091
aF-2.0609752996186984e-122
aF-4.489516785105851e-24
aF-1.2059649293222132e-74
aF-4.665469287757801e-50
aF-4.894211273816953e-50
aF-6.797187245486444e-88
aF0.0
aF2.416663724751651e-146
aF-3.2982126486271398e-15
aF-5.259218349402298e-36
aF-6.3063243233401415e-21
aF-1.5798846797103522e-06
aF-0.04197882246167439
aF-0.0014223306026467982
aF-0.0008412862600529144
aF-0.0017489939176379536
aF-2.287164814252708e-96
aF0.0
aF-3.650165505131098e-117
aF-3.8664799482033373e-57
aF-1.0961803258557221e-05
aF-9.308269581919535e-55
aF-1.9103460013562716e-160
aF-9.731960756304896e-39
aF-3.2540691285261503e-36
aF6.490248722926532e-08
aF-1.989889193122517e-32
aF-6.833364146790811e-55
aF-1.2207252212265703e-89
aF0.0
aF-4.459674164951888e-27
aF-0.02326840827290291
aF6.597848192234466e-133
aF0.0
aF-0.0004165976368511742
aF0.00033337241976578297
aF-4.036823931256381e-57
aF-1.283574627296131e-28
aF-2.996658651141766e-42
aF-0.001055083082002154
aF-8.37638108904218e-34
aF-1.1017702116911165e-40
aF-3.497921818948914e-143
aF-2.5578929691641403e-39
aF-5.9921145807680186e-83
aF-1.9067118890945344e-122
aF3.552499483751979e-19
aF-1.0203397951190128e-36
aF-1.0117951614254759e-99
aF-1.1375422220575345e-21
aF-0.02742060963096162
aF-4.6785460569760265e-56
aF0.0
aF-1.222877157415131e-105
aF-1.0460209040574713e-63
aF-4.9932068254354525e-144
aF-8.039752344383413e-15
aF0.0
aF-2.9834442216259345e-05
aF-8.639910541644621e-05
aF-2.0103222784524634e-138
aF-1.655274268721585e-12
aF-2.727750666322122e-105
aF-4.161053301058542e-05
aF-9.468687163154417e-37
aF-9.684968176666033e-64
aF-5.271866568303572e-125
aF2.1488266237607385e-42
aF-1.0710917011829337e-16
aF7.569723206327839e-69
aF-7.042291360004232e-109
aF-0.0002143827070171491
aF0.0
aF0.0
aF1.1911264110335432e-97
aF-3.783460691746504e-25
aF-2.702862766406239e-83
aF-9.539335342414703e-67
aF-1.6358520718050305e-05
aF-8.434305609181861e-09
aF-7.433040182890187e-25
aF1.3337228788694948e-29
aF-0.13230676747886233
aF-3.477025978184258e-30
aF9.801883636030275e-27
aF-6.329897193787279e-55
aF-1.1305182527984095e-89
aF8.294767497087857e-42
aF3.9709019687136483e-28
aF0.0
aF7.12415584469741e-166
aF-0.004897284708123704
aF-0.015542086824964368
aF-0.027237873802101718
aF-6.281758349981535e-28
aF-1.6367498810035545e-89
aF-7.890574255041303e-111
aF-2.459430601917791e-07
aF-3.302082087011386e-92
aF-2.7349085254030892e-27
aF-1.39028741690368e-64
aF1.0376733926423893e-23
aF-0.046180698734434214
aF-8.157188509210937e-65
aF2.9299518202692302e-18
aF-1.64977646163638e-80
aF-1.808982195062718e-141
aF-1.3254689178221187e-15
aF-0.001371137786556164
aF-1.116234772240859e-34
aF7.032943298881449e-06
aF-0.00019881887219339606
aF-5.6161251483476094e-40
aF-0.01452904836759047
aF-3.624333457244503e-69
aF-3.7082457744695933e-78
aF2.8735552404469778e-05
aF-0.002582112144248774
aF-9.260210654348458e-74
aF-7.552020592563051e-65
aF-8.171636039565777e-31
aF-0.0007225945398255302
aF1.4328902007589608e-142
aF6.831383524703558e-29
aF-3.4584142312326707e-07
aF3.6636333452280716e-40
aF1.6117144413180194e-39
aF7.942250020223928e-06
aF2.710866837057995e-18
aF-0.0007875553272930137
aF-2.7153974626303003e-76
aF-9.285406092879867e-10
aF-7.475160895316592e-72
aF0.0
aF-1.6752542226569618e-44
aF-6.029001528886677e-66
aF-3.2746451962458106e-35
aF0.0
aF-1.6112460751412418e-157
aF-7.308653135369206e-10
aF-5.409526745842395e-28
aF-7.621591046517721e-34
aF2.436188221836421e-69
aF-6.211798326841285e-106
aF0.0
aF-1.2512628640030842e-65
aF-4.7462597678442815e-45
aF-1.2649519940748697e-65
aF-8.762975604790517e-05
aF1.9849157640801904e-93
aF8.237221169290136e-14
aF-2.0683288271539575e-34
aF-2.959433923456042e-61
aF-1.0074061503837394e-22
aF-1.308874387955999e-98
aF-4.5145412336526315e-18
aF-1.516649764131625e-06
aF-3.472731304369042e-65
aF0.0
aF-3.623311580895479e-98
aF-0.0009587039398467049
aF-0.002391694626488404
aF-8.80524199633041e-37
aF-9.873029461424991e-46
aF-0.08650644641742262
aF-5.747810406627224e-57
aF-0.00029702281098063364
aF6.455737343773707e-07
aF-6.485999831258833e-15
aF-0.0004343757372965567
aF-9.556373699006862e-15
aF-3.8915708116109866e-05
aF-2.2708612195781014e-34
aF-2.379706996366216e-76
aF5.866519087211678e-29
aF-0.0021832193777370263
aF-8.157132594292499e-95
aF-4.6054408069017996e-135
aF-2.6481247782026896e-34
aF-3.013722417542577e-58
aF-1.0486327712521095e-89
aF-7.575479171475984e-31
aF-9.65191642427467e-35
aF-1.5193717611915748e-12
aF-3.5916611784289837e-34
aF-3.934821937035984e-07
aF-0.024257857081188144
aF-0.053004606166809416
aF-1.0262183745847346e-08
aF-0.05979992292729897
aF-2.5700862469412482e-05
aF-1.8408825948621412e-34
aF-3.174253952440533e-11
aF-9.00668452174406e-35
aF-9.746333689868845e-90
aF-1.5316662975932515e-101
aF-2.7450728410985743e-93
aF1.177491564199977e-25
aF-0.0010657212476599667
aF-0.0008753234987739422
aF3.201225994793307e-05
aF5.408576875967669e-18
aF-3.877626213067907e-58
aF-3.957310466821154e-24
aF8.658000338458805e-59
aF-5.717215941717803e-26
aF-4.313910713466552e-45
aF0.0
aF-2.225802807479462e-136
aF-2.548376566068158e-97
aF1.557957008780979e-06
aF0.0
aF-2.3450456181243064e-62
aF-9.585293544226743e-46
aF-0.0007070689193503243
aF-0.00045728921968713913
aF0.0
aF0.0
aF-6.534300923518099e-15
aF-0.0003695486881079688
aF-1.722456107046344e-11
aF-1.3498912605457222e-150
aF-2.0703459153612505e-61
aF-9.512076733587984e-09
aF-6.498408308999607e-121
aF-1.654453862166696e-47
aF6.198330397495021e-05
aF-0.018168302741070452
aF-7.035112212826616e-30
aF-0.08526288240499508
aF-1.8120894416505282e-09
aF-1.0376763539162367e-76
aF-3.3238000171956046e-20
aF-0.0370334167043818
aF-5.94182616266055e-29
aF-5.892944913088394e-56
aF1.0569759177604429e-06
aF-9.079238043637527e-90
aF-7.036092620506972e-31
aF-0.007612404153182457
aF-5.815141900396027e-48
aF0.0
aF-2.7448951066560743e-08
aF-2.1298824665439744e-24
aF-3.0788595682343386e-06
aF0.0
aF-5.922107556576537e-74
aF0.0
aF-2.0677574609719228e-08
aF-1.6323913492437077e-11
aF-6.70805274119272e-58
aF-2.1006077232442526e-64
aF-8.512972478858054e-145
aF-0.02031302371737952
aF5.932895063450138e-59
aF-1.1901665209464504e-112
aF-6.7485401715704e-149
aF-0.03667158672326791
aF-0.017223858748401273
aF-2.22920136185995e-52
aF-0.01130121751578543
aF-0.029146998814127786
aF-1.053200918358213e-84
aF-3.3717945646283155e-140
aF-9.091001251388115e-103
aF-1.0653164845870622e-128
aF-2.193700975278804e-118
aF-1.1849368361671155e-66
aF-6.5267658913260825e-09
aF-1.322327153336519e-10
aF-0.00012367915676945247
aF-0.034396663516312945
aF-7.106514556663065e-129
aF3.2699175665357795e-09
aF-1.2308064184064928e-67
aF-1.691399712117745e-108
aF-0.00011390653482952818
aF0.00019432553874563634
aF-0.00011237246032383901
aF-1.2722770562475588e-141
aF-1.7727779752253604e-08
aF-0.01563917001683632
aF-5.487463142202738e-23
aF-2.3839962856734893e-164
aF-2.096875959418341e-113
aF1.1453140130362628e-10
aF-4.878849842481117e-148
aF1.5835586393735252e-21
aF-7.860746387817101e-13
aF-1.545659180076976e-11
aF-0.026837100248165567
aF-1.844454429658963e-47
aF-1.4050466593510376e-09
aF-0.02978019845063082
aF-1.0750982316243232e-146
aF-0.0023176505900165327
aF-0.0336636047593381
aF1.8898813929717044e-25
aF-1.9581816515333426e-151
aF-8.394762959650957e-129
aF2.318164842173822e-137
aF8.311889947587022e-07
aF1.1657760076121176e-106
aF-4.5183006764737454e-49
aF-3.807740757983548e-93
aF3.13831313001915e-47
aF1.3731799445023367e-33
aF-1.7099429003385501e-59
aF4.867795323131019e-65
aF-0.056966170633194556
aF1.0598085487732724e-10
aF2.0635004083127423e-52
aF0.000308794467291105
aF-1.202475713786006e-92
aF-0.020060553029520697
aF-8.856649395419051e-150
aF2.488512415121722e-23
aF-1.301832349192656e-06
aF1.0094389386960394e-14
aF-7.179439491836737e-23
aF-3.0605485202459163e-07
aF-0.03218256570605822
aF2.1457472061106812e-142
aF-7.646847101352235e-33
aF-0.0004928517384181091
aF-0.010902950113801388
aF1.8843012160280364e-55
aF-6.935955703081281e-162
aF-3.560046885944814e-67
aF-8.412680773389486e-35
aF-2.1265788916782018e-19
aF-6.698410850213909e-06
aF-1.0070450839909552e-05
aF-2.2564022577482554e-11
aF4.890700675474529e-111
aF4.074664364554833e-132
aF1.9850462965063257e-142
aF-0.011924442120438077
aF-5.47957798026711e-74
aF7.381981757060779e-06
aF-2.899226266531191e-33
aF-8.98261643854861e-19
aF-9.922569344076193e-125
aF1.4300112384724853e-06
aF0.0
aF1.2559126222919675e-56
aF-4.1186406075577287e-41
aF-1.1261995047190851e-136
aF-1.056093186547843e-123
aF-1.543093563056651e-92
aF7.113165593046634e-07
aF-1.5583905480741754e-50
aF-0.00024718242963313786
aF-6.590703176232699e-48
aF0.0
aF0.0
aF3.0012455266566066e-09
aF-4.512138626031563e-06
aF-0.00024138777703362296
aF-3.5922132981976093e-08
aF-0.06355521866618034
aF-5.840900423471946e-56
aF-0.013238379201059825
aF-0.012271324346208895
aF-4.027434569750711e-120
aF-1.6108029572860883e-111
aF-0.019788733560804475
aF-6.523077249214432e-129
aF1.0369904419280573e-100
aF-5.0893519137535684e-55
aF-6.337903631964399e-29
aF-1.199081748774246e-21
aF1.8081331302995176e-06
aF4.114311310775913e-29
aF-2.2366448175572606e-07
aF-2.5200186135604152e-05
aF-4.0279267428986175e-07
aF-4.285515402452892e-15
aF-1.221484515690176e-52
aF-6.933997441015892e-72
aF-1.0073849586944248e-95
aF-2.3253247838269504e-08
aF-2.6016947062963827e-15
aF-1.983469758937324e-08
aF1.6907013543266062e-107
aF-1.453713139571166e-57
aF5.312365328471795e-103
aF-7.60491602279158e-25
aF-0.00045371851325911396
aF5.562137019237201e-21
aF3.950090686696947e-06
aF-0.0034954764739396193
aF2.1528344432594418e-52
aF-1.1059199473854294e-31
aF-9.910730764472771e-54
aF-2.1829165839485257e-54
aF-1.5397454756719666e-36
aF-3.2255597040819502e-21
aF-1.0800333383114014e-157
aF-0.014395666380142847
aF-1.3941891376078585e-24
aF-1.5132068376460487e-13
aF0.0003272223776213369
aF1.1234292893755272e-60
aF-5.620571031541227e-05
aF-0.044045150673387226
aF-3.002444634857628e-28
aF-3.997412035667325e-20
aF1.3092579117163608e-06
aF-0.029402075368239126
aF-0.06998765536961814
aF-2.260755328513443e-122
aF-1.3205530441308037e-105
aF0.0
aF-2.654492486219959e-38
aF-1.7455365228375883e-135
aF-4.3574188786394684e-06
aF-3.1580527213389853e-11
aF-1.2808634473978811e-05
aF-5.262192305340497e-55
aF-3.805886215973771e-166
aF-3.151471880457266e-117
aF-2.7854922134403088e-36
aF8.796820629919424e-11
aF-0.014723719126228888
aF-1.2643670845098555e-24
aF1.8713756341156835e-14
aF-5.091895754235795e-65
aF-7.274030617112304e-41
aF-9.195921842178329e-38
aF-1.2175126367496131e-22
aF-2.735320739163879e-116
aF-1.7032650547374484e-84
aF2.1776103016445973e-13
aF6.090229058283221e-145
aF-3.0212427438937505e-49
aF-2.0873931572126685e-11
aF6.688583478110894e-159
aF-8.63948805919626e-62
aF-4.352698831149691e-14
aF-0.0017581111124089766
aF-0.011465278704320372
aF-9.65361729217564e-12
aF-1.537290698905526e-121
aF-2.5969052140198274e-12
aF-0.0034282301651640842
aF-0.018516700270608297
aF-3.1757581339281507e-11
aF-5.535701838344431e-11
aF0.0
aF0.00015090261941228138
aF-9.876465420895429e-08
aF-8.116134288310532e-161
aF-0.0006233431191308125
aF-0.020937503446830943
aF-2.763974964401102e-99
aF-8.793202036743594e-05
aF-0.015009517241350164
aF-0.010785714412918656
aF-9.365243121265499e-51
aF-2.186474069592168e-19
aF1.9810300451909006e-14
aF-1.6161232724187762e-128
aF4.839766152520809e-103
aF-1.8563099817643577e-12
aF-1.7103653406601253e-34
aF0.0
aF-1.23247304690534e-134
aF-7.451251573927143e-141
aF3.755620889486514e-29
aF-2.7982428504499197e-60
aF-7.51991389152615e-141
aF-0.00041763486360127025
aF0.0001407102342185623
aF-1.5998701547471472e-34
aF-6.549552364076621e-31
aF-4.793105645176823e-125
aF-3.8851329262127454e-29
aF-3.277139751410276e-67
aF-0.016809943946105427
aF-3.131653025329975e-08
aF-0.0008353992734478617
aF-0.03743588088302477
aF-0.0006116242787734667
aF-1.1455503996643828e-06
aF-8.473495709018614e-37
aF-5.529375436595081e-83
aF0.0
aF9.660066423292336e-05
aF-1.0420910437639495e-08
aF-3.331439222808506e-117
aF3.640567996789489e-05
aF-3.7092253866252766e-82
aF-0.008167406798389423
aF-0.010119833083394224
aF-1.0315542370826678e-23
aF-3.5861294162310356e-135
aF-5.1700744741862714e-163
aF-1.2038241461590079e-09
aF-1.5676672398442897e-96
aF-1.4500369130809e-11
aF-4.754598016949801e-55
aF-6.990158103047161e-33
aF-1.3422248795754616e-51
aF-0.00039722032715704933
aF-2.9165852231578317e-05
aF-4.911160375144348e-20
aF-0.0004698692282421144
aF2.1360057343152523e-18
aF0.0
aF-3.8043201352742065e-11
aF-0.0002756777006345431
aF0.0
aF5.555657693747604e-08
aF3.3567838105931016e-05
aF-3.8357639371488934e-20
aF-1.5508989294396022e-08
aF-7.080061265180289e-45
aF-0.000725286852766273
aF-1.0988943807590567e-22
aF-0.04416657111077233
aF-2.0156159265736504e-44
aF-1.0619676451415418e-86
aF-2.730099725143221e-07
aF-0.02598545134178494
aF-8.163265536966025e-09
aF-1.4638548783225126e-11
aF-8.795276123528439e-72
aF-1.8052675710125626e-07
aF-0.0781003319789321
aF-0.010984142930507536
aF-3.3818069379623923e-68
aF-1.36402820911045e-63
aF5.526859522805206e-146
aF-1.020611403463824e-08
aF-0.00032128250285512277
aF-1.8512600338778793e-19
aF-0.09450519692650368
aF-7.086833541171165e-24
aF1.044585050097134e-29
aF2.0564763055354488e-25
aF0.0
aF-2.933575843091416e-32
aF-2.695562736107179e-05
aF-0.009287952033437338
aF-0.02440550343472087
aF-5.3213043680219835e-77
aF-4.7025433850261084e-119
aF0.0
aF3.659511073817804e-15
aF-0.015853192229791445
aF-0.0499713989533694
aF-1.51936341186214e-16
aF-5.845448235482403e-76
aF4.0747650935908974e-95
aF-8.820100610212353e-08
aF1.566103412526395e-05
aF-0.024954214811299856
aF-4.455850355378872e-56
aF-0.023261817211121284
aF-1.2565628968190566e-06
aF-2.462884524301027e-12
aF0.0
aF-1.168328126576064e-07
aF-1.7960239431094552e-16
aF-8.178889585640582e-81
aF-2.8123431969468314e-97
aF-1.0419347110972692e-74
aF-2.6584286804441337e-108
aF-4.1663754146153897e-16
aF-2.785442635107695e-81
aF-5.423641777584527e-56
aF-7.921177894626525e-142
aF-8.818843385152892e-47
aF-8.55610926297552e-83
aF-4.496276671123306e-52
aF-2.3346365652723e-88
aF-8.558415001994324e-10
aF-0.00010615593251516563
aF-2.025402305101776e-58
aF2.2644650461487906e-110
aF-1.2136065583018409e-144
aF0.0
aF-4.88734029000666e-45
aF-4.778274474831456e-47
aF-8.804252028653985e-08
aF-1.4396959399777733e-96
aF-5.89704043789409e-81
aF-4.533644680676325e-61
aF-6.140866024943781e-32
aF-0.0006893137755285444
aF-1.1364791576248511e-67
aF-2.963631163826495e-134
aF1.6475974077650169e-131
aF-9.163183451156278e-17
aF8.230900648653813e-27
aF0.0
aF-3.3484929916361696e-99
aF-2.859409580658446e-125
aF1.335774644262305e-23
aF-0.021088796249610665
aF0.0
aF1.2385673344525014e-23
aF-3.294444566680835e-166
aF1.5306649579556535e-06
aF-9.968686931708347e-11
aF0.0
aF-6.435715261293526e-21
aF-0.045310398917257765
aF-1.6340972635797126e-20
aF-5.698961661347868e-131
aF-1.4133278665626156e-51
aF-0.017004392292179794
aF-0.001601306550435308
aF0.0001768171054069961
aF-0.025618509311858474
aF3.847868168765528e-148
aF0.0
aF1.1611611278239744e-33
aF-8.692859010257004e-162
aF-0.011341426528190951
aF0.0
aF1.0713773866141274e-23
aF-2.4704725077044774e-20
aF0.0
aF4.923822350453143e-109
aF1.4021890351783358e-60
aF-4.268827811272508e-166
aF5.808319979935951e-115
aF-3.1027302068392036e-99
aF-3.151886183381048e-155
aF-1.1261521720073061e-144
aF-4.600358290432911e-41
aF-0.02834069599230635
aF-2.2918154835802144e-119
aF-0.012268310440407718
aF-1.0665917143406998e-05
aF-0.009289808011551116
aF1.7360453728389018e-17
aF-2.983189055899561e-104
aF-1.728500345497124e-07
aF-9.922415325825046e-14
aF-2.2992536733811e-117
aF-2.7122593728538624e-29
aF-2.0314646644619153e-97
aF-3.873622440921404e-41
aF0.0
aF-0.0438331777730137
aF-5.4230551108119425e-112
aF2.4217888353242548e-30
aF-0.042402404537789457
aF-3.8010704331858807e-165
aF0.0
aF-9.225864054554049e-11
aF-7.146975777894484e-49
aF8.641251913054904e-13
aF-2.2894676040473826e-23
aF-1.551103636466737e-05
aF1.4675022240788197e-17
aF-7.858953799449866e-94
aF-1.4786791510501383e-40
aF-0.001906186532175055
aF-4.242470208046124e-21
aF-1.294699488270243e-100
aF-8.35775540130704e-32
aF-6.556925773043496e-145
aF1.3708016629456896e-125
aF-1.8809270944710364e-100
aF8.934053597702158e-13
aF0.0
aF3.466245117604909e-132
aF-0.0017446443583513669
aF-8.351406477375705e-06
aF-1.6062417606930774e-38
aF-4.2026670513766e-61
aF-0.0021017823079763384
aF2.5952744338870304e-09
aF-6.286458543687983e-17
aF-2.6517849258440213e-31
aF-2.5293693877035828e-12
aF-1.882069044364682e-84
aF-0.008338690740706681
aF-1.0546832377288235e-22
aF-0.004696151429500117
aF-9.109277035337317e-68
aF-9.545180008033681e-24
aF-0.11031689084086481
aF-5.206250691725426e-156
aF4.9067603332647393e-54
aF-0.008342065341655009
aF1.6944422775187387e-14
aF1.3467897774780564e-17
aF-0.049679649138127564
aF-2.6385441086534602e-65
aF3.109043791012628e-05
aF-0.0011857857678959631
aF-1.1538197651410537e-06
aF-2.8046489369980822e-140
aF-0.06934279160076788
aF-2.0759131496671353e-18
aF0.0
aF0.0
aF-0.00014535215657159425
aF-7.160202477856765e-30
aF1.8778053241116218e-19
aF-7.010560252286137e-27
aF-1.6729061764350125e-83
aF0.0
aF-8.725668091599012e-23
aF-8.541688861501085e-46
aF-0.012025525972919289
aF-7.922653056979151e-10
aF-4.927432325149241e-109
aF-4.145787056477695e-56
aF-4.1752387701604015e-94
aF-1.7658202336904774e-31
aF-1.4527557915678171e-165
aF-2.6357715980525674e-92
aF-1.7874229614203868e-113
aF0.0
aF-9.642319497817337e-09
aF-3.818411575632608e-05
aF4.481236312053531e-111
aF-7.128999763312135e-10
aF0.0
aF-1.054097162567921e-121
aF-5.279021371258785e-64
aF1.5946863585380933e-23
aF-4.2839366868692203e-66
aF0.0
aF-1.8892584296175165e-54
aF-3.0357800739327657e-71
aF6.550124070678783e-69
aF-4.230323130934502e-24
aF-1.97759430516036e-35
aF-1.2679815314324967e-06
aF0.0
aF-9.861090480583893e-05
aF0.0
aF8.457334765008204e-06
aF-9.356951940903835e-09
aF-4.783261525023163e-53
aF2.204121319589624e-18
aF-0.10176446171902043
aF-2.341004664969545e-165
aF-0.005776062180054014
aF-2.21606631544377e-28
aF1.7745545451961092e-19
aF-9.186457270350621e-59
aF-1.665010185550925e-61
aF-0.007375113342739544
aF-2.3725693772041148e-39
aF1.1141113716185193e-05
aF-8.635132950890276e-55
aF-7.442481121435872e-09
aF-2.1643426083491183e-10
aF8.859835434161062e-10
aF-6.918511524240052e-74
aF-7.32071385080462e-111
aF-1.9046676254347372e-58
aF-3.562320966029147e-24
aF-3.1771365316275154e-11
aF-7.537538875629909e-10
aF-9.757414689037159e-23
aF-0.000614275081152334
aF0.0
aF-8.461169909555319e-68
aF-1.1406834327956887e-09
aF1.5240243987737667e-05
aF1.1229952809433017e-153
aF5.9638643972203665e-133
aF-0.04889803432539646
aF-5.1833777299286016e-64
aF-0.00040077084446112093
aF-0.01467767157338611
aF-9.50220966233696e-79
aF-3.8551992719738474e-16
aF7.630869971559825e-05
aF-2.2532129075336624e-09
aF0.0
aF-1.5936651443614037e-19
aF-1.5479115968937385e-130
aF-3.05028109086415e-07
aF-0.00016899399711813915
aF-1.0517600648986831e-13
aF-5.043150887715122e-25
aF-0.008989171129661478
aF-9.810434615420736e-06
aF-1.1119394283052906e-74
aF1.715870155760991e-25
aF2.4310844826875395e-51
aF-0.053983210486704555
aF-6.959326194318918e-161
aF-1.2433724369566835e-10
aF-0.007190604295415556
aF-3.960045304689686e-80
aF7.850525776389052e-06
aF-5.7076675787040524e-12
aF-7.694452733155613e-20
aF-4.236101987918454e-08
aF-0.020001909466142574
aF-7.396677995560532e-52
aF-0.003286372764239131
aF-8.985388524114421e-09
aF-0.0003680678820258677
aF0.0
aF0.0
aF-5.730861237297238e-51
aF-4.0347120832058896e-28
aF-1.571782235500145e-50
aF-5.300882491575772e-12
aF-2.1102703786517917e-165
aF5.2824544362360535e-14
aF0.0
aF2.8604672572089713e-24
aF-5.235850711783941e-62
aF-4.380980461306252e-21
aF-0.0060628155849132654
aF0.0
aF-2.5015972533344272e-05
aF-1.8875444641249492e-134
aF-0.003926481576068382
aF-0.02148666358624214
aF-2.5248651050017896e-27
aF-0.0003693848583452026
aF5.1467766112917565e-08
aF-3.3783860486306207e-07
aF-9.876258966117078e-05
aF-3.8037265539280213e-50
aF-4.871103769062011e-09
aF-0.03379880261318036
aF-0.00023479097395328344
aF-0.020455064340629096
aF-0.0508953951819549
aF-4.1977772291969544e-43
aF-0.048094636559369464
aF-1.383205832549599e-56
aF4.930883231150202e-05
aF-8.262936402317314e-07
aF0.0
aF-8.890826705785505e-39
aF3.0747563077099442e-40
aF-1.4662165618040747e-110
aF-1.1037669147840795e-63
aF-4.4479863785329034e-125
aF-4.266922194834951e-135
aF-8.270443525213186e-43
aF-2.4284488716400824e-104
aF-2.98082134797226e-34
aF-1.50025946825287e-34
aF-2.4516694574947753e-73
aF-0.0314402685995763
aF-2.276227377806235e-136
aF-9.574365500919424e-54
aF-1.135442125005894e-43
aF-7.433861103666265e-20
aF-9.034904818088093e-23
aF0.0
aF-1.8912741060223028e-51
aF8.515903018916513e-24
aF-6.178595505114512e-18
aF4.7760827017676705e-08
aF-4.726100406456721e-13
aF-4.342345725827882e-89
aF-2.7487147818227177e-64
aF3.2709667375496583e-28
aF-3.8771862489089604e-49
aF-2.7628006555548853e-34
aF1.2459712918510394e-59
aF-1.5284315236544934e-24
aF-5.379646754522606e-27
aF-4.471346415466923e-06
aF-0.045547301659791865
aF-4.246963488547384e-14
aF-3.547000531111314e-05
aF-6.805940775777405e-111
aF-0.0008607272953534307
aF-0.05855865518058885
aF-1.1728901901675229e-27
aF-4.981211361669142e-40
aF-4.4437732772682775e-55
aF9.092588080408643e-135
aF0.0
aF-4.313450700564487e-05
aF-0.001674744113133502
aF1.3902704290843257e-10
aF-1.922389567032137e-18
aF-6.408473710172644e-73
aF0.0
aF-0.0001472506348365945
aF-3.420544083584288e-21
aF-1.8446005643823745e-57
aF-0.039285448357965755
aF-0.013808618030893685
aF-1.7873303052507307e-72
aF6.079457516289971e-89
aF-5.58449203043501e-42
aF-0.018832188930401797
aF-0.10437744164007422
aF-9.013243581258853e-125
aF-1.2274570489375044e-51
aF-2.2042140870301547e-07
aF-9.895760123907735e-23
aF5.7914094131715735e-15
aF-1.6870526588622153e-12
aF0.0
aF-9.14581633933874e-46
aF-2.0554199292881305e-28
aF-8.927256077275571e-22
aF4.594022503084402e-160
aF-7.056539653631459e-33
aF-8.378550533828325e-23
aF0.0
aF-1.9295218609181535e-08
aF-0.010285406746662798
aF-0.0017756654955793122
aF0.0
aF1.1302944931089338e-154
aF-1.4103266002286738e-34
aF-6.350492160933276e-10
aF0.0
aF-2.119960268572324e-136
aF0.0
aF-3.0106000138679835e-117
aF-2.2332803819270797e-77
aF0.0
aF-2.765930521897825e-30
aF-7.256253065981544e-29
aF-8.669735235725011e-78
aF6.059894919650746e-07
aF-6.015958971148612e-59
aF0.0
aF-1.1121204907794462e-06
aF-2.8254388737978507e-28
aF2.7401747260155063e-06
aF-1.0546780128651873e-05
aF2.7175514986033404e-06
aF8.814907214421286e-07
aF0.0
aF1.8608743561226513e-25
aF-3.2234291457706487e-50
aF0.0
aF5.365377312321959e-15
aF-1.6035624453355383e-07
aF-6.155570747785039e-86
aF-9.562347013656622e-12
aF-8.87941153416102e-19
aF9.36152388896168e-19
aF1.287544402489818e-10
aF-2.63816301468855e-07
aF0.0
aF-0.013452070562940276
aF-1.3575139246658075e-95
aF-4.52436668855881e-41
aF7.929589539302003e-05
aF-2.824051827332112e-159
aF-1.7265602439598557e-74
aF9.605586898524764e-107
aF0.0
aF-1.1499247491539888e-14
aF-8.198403399431174e-29
aF-3.2622740977089274e-13
aF1.0524415101903076e-33
aF-3.0741952162745778e-68
aF-6.2745474567781305e-114
aF1.5101689344370468e-19
aF-0.005303149386151359
aF-0.020171472596708078
aF7.0644979687431125e-15
aF-0.003287174514744626
aF2.0412405910625897e-100
aF8.756801590384161e-101
aF-5.603012959645835e-48
aF-8.339010927389895e-12
aF-0.03727311870533171
aF-3.5302891778558496e-28
aF-5.630108482312915e-110
aF-7.009730335008577e-35
aF-1.8151140502998407e-98
aF-1.2941464463276759e-05
aF-7.785176417508757e-23
aF-7.147291084977914e-156
aF-5.6164054443147256e-05
aF-5.2377965658955044e-05
aF-2.313979839278138e-06
aF-9.288257103062818e-147
aF0.0
aF-1.1877921571929866e-107
aF4.4413356192614825e-08
aF4.139665710472943e-08
aF-2.2858561018829796e-07
aF6.16745735527062e-138
aF-1.3289728414895997e-34
aF-8.413593737219556e-78
aF-2.1362234846619465e-12
aF-0.016599924738571414
aF-2.1648911472674995e-79
aF-0.000751617994721332
aF-8.040921142471583e-161
aF-8.814959939736473e-96
aF-2.716598583862326e-32
aF2.2382812163095575e-51
aF-0.0993899886669966
aF-1.6256721962488976e-08
aF-2.28934971487638e-27
aF-3.7277962147125416e-89
aF1.189569180579355e-125
aF6.0829833967131525e-27
aF-5.2282688067387296e-83
aF-0.009907162243568976
aF-3.3343333676447574e-24
aF-1.823716173388216e-120
aF-1.3236307135447148e-43
aF0.0
aF-1.2430575494836163e-07
aF2.4327889001092467e-17
aF0.0
aF-1.0391846041672762e-52
aF-4.087687245289201e-26
aF-5.082125049589955e-31
aF-8.62010414465314e-51
aF-0.016292133151655355
aF0.0
aF1.2376492043158324e-135
aF-6.681714183452997e-05
aF-2.6822769332876303e-05
aF0.0
aF-8.935811534289662e-25
aF-2.2812605425582646e-108
aF-6.795385391536539e-27
aF-0.0024679261094199094
aF-5.899393949277953e-152
aF-3.038007772486747e-07
aF-5.024490680674029e-11
aF-1.2732470067310436e-95
aF-9.945543932447241e-34
aF-5.645394932010478e-91
aF-3.9160864309275455e-18
aF8.614529785035265e-103
aF-4.206173054905319e-99
aF-2.8633685053528627e-12
aF1.1973680882431116e-11
aF-3.040656280156351e-11
aF0.0
aF-2.2854058075730124e-141
aF-2.4113075644892765e-07
aF-3.758412258304414e-18
aF-1.172652364918657e-45
aF3.367592207373475e-148
aF-1.078755464548205e-06
aF-3.186605712715653e-53
aF-7.970719942162917e-58
aF-3.3933516229111945e-06
aF-1.695455780803284e-35
aF-7.26816587593582e-20
aF-1.967839768547898e-20
aF9.613522643769364e-05
aF-2.1851669065065811e-32
aF-3.023941883911277e-13
aF-5.129960295637581e-141
aF-3.241533571815111e-70
aF0.0
aF0.0
aF1.0282914343866052e-39
aF-4.2935562881406454e-138
aF-5.159445336536259e-07
aF-7.990634444708285e-05
aF-1.809457819097519e-10
aF1.5930906436006078e-25
aF-1.5091987455587003e-08
aF-3.451248724409942e-21
aF1.4327620172279738e-126
aF0.0
aF-0.0006641180888137241
aF-1.9939105571164822e-99
aF-9.016418241181629e-06
aF-2.2791025862476413e-07
aF-1.8619287047903047e-50
aF-1.0683325080322435e-51
aF-8.722578970560613e-58
aF-8.52761984006256e-59
aF4.147407989101017e-101
aF0.0
aF-2.1611600815756013e-43
aF5.282721538704253e-115
aF0.0
aF-3.246387858808347e-05
aF-5.360606548751107e-31
aF-0.0012359435192514615
aF-8.13849173056939e-118
aF-5.488761981336088e-152
aF-1.1282213763580195e-105
aF1.4935940336540186e-128
aF5.3614291053263265e-106
aF-0.022486015447149243
aF-0.0002794254327061973
aF-4.7632073636799114e-09
aF-0.03918091751268601
aF-0.013988432277368724
aF-1.12980707628432e-10
aF0.0
aF4.809421554934844e-05
aF-1.7049286646229405e-163
aF-2.0610937839482892e-166
aF0.0
aF-7.971740532531627e-16
aF-1.1006247845872092e-24
aF-1.1603895535691473e-33
aF-8.717819398930854e-113
aF-3.9601248847937035e-135
aF-7.652492224396586e-43
aF0.0
aF-5.380635705975811e-15
aF-2.855559982348954e-103
aF0.0
aF-2.161610460552557e-109
aF-0.0005736468573534482
aF-0.0003413337438061611
aF0.0
aF-1.9099866576502677e-59
aF-0.019803972249222545
aF-3.608257874291471e-40
aF2.0378214056644416e-70
aF-1.0195442308114016e-74
aF-7.510655864504468e-147
aF-2.367305786257745e-102
aF-1.8559915228342893e-117
aF0.0
aF0.0
aF0.0
aF-2.9222052168582534e-20
aF-3.19834921808675e-135
aF-6.44924356664518e-33
aF-1.1924971355479735e-07
aF-3.363486505021166e-40
aF-0.0015060065581759847
aF-0.00039501192231710254
aF-7.276103626059365e-121
aF-8.544508235934234e-06
aF-1.4586537968764566e-30
aF-2.0472770461599846e-60
aF-2.0406729193431969e-07
aF0.0
aF-1.7272850254535985e-84
aF-0.003906259848520322
aF-3.448912969126004e-67
aF-4.9379279686048984e-138
aF-7.026017058851356e-67
aF-1.1346391379946738e-102
aF-6.341965050792427e-111
aF-6.909352092534802e-09
aF-3.4286533334973945e-112
aF-7.64654352707663e-88
aF-1.0807083241831924e-28
aF-4.13114751555974e-116
aF-0.00013977208882905994
aF3.86631461391621e-54
aF-6.258337290738029e-50
aF2.658361468514921e-09
aF1.988047471264317e-42
aF-1.270248196894372e-64
aF-8.377797572401252e-09
aF-7.726750336677257e-05
aF-4.861386014903931e-121
aF-2.6317024467424076e-166
aF-2.5014482882230418e-166
aF-0.04027976393604947
aF2.3426782074865984e-05
aF-3.683132433878151e-135
aF-6.762409899975346e-156
aF-8.782692857840662e-12
aF0.0
aF-7.881293302437579e-79
aF-2.488308422652158e-40
aF0.0
aF-7.136230845164407e-73
aF-1.984655058133561e-95
aF4.788236667904338e-22
aF-2.9849954106380688e-164
aF-1.3927125331656335e-82
aF-6.739405990119748e-53
aF-7.293036297808587e-94
aF-1.1554079209352783e-12
aF-4.1411793706215535e-14
aF0.0
aF1.1251537916315876e-55
aF1.0935792352211794e-11
aF-0.019988216650535975
aF-5.495083552119524e-08
aF-0.015950093663469337
aF1.8269167949486335e-14
aF-4.696224448203779e-99
aF-2.669694683355693e-86
aF-3.455581179334079e-16
aF-6.964669616274719e-147
aF0.0
aF1.4803164404281e-25
aF-3.4934532684046954e-97
aF-8.198696702621024e-18
aF-4.731131571431068e-79
aF-3.8418962988032285e-85
aF1.9222583137146224e-121
aF0.00010893597213363603
aF-3.023685889664522e-05
aF1.7110487462490092e-113
aF-0.01804143137843993
aF-1.7747948613360578e-59
aF-4.2660732269407874e-68
aF0.0
aF-2.089253149830042e-77
aF-1.4297433974017417e-92
aF2.199777603332781e-17
aF-4.851188674622412e-25
aF1.2980913368895743e-134
aF-9.224797301331175e-99
aF-6.428202317597831e-09
aF-6.641707322235701e-30
aF-1.0453735468019313e-103
aF-5.71819207807659e-14
aF-0.002450544464796601
aF8.024397281634148e-06
aF0.0
aF-5.686277923383412e-43
aF-1.9307709162891852e-20
aF-1.8415349784092463e-19
aF-1.998142500462e-16
aF-3.1780908531437393e-21
aF-1.7037346348340898e-100
aF-3.1287357865488484e-24
aF2.9821521545774187e-95
aF-8.703483926601703e-148
aF-7.771897022621271e-46
aF1.0263416548866462e-107
aF-0.0018793858192080912
aF-0.010195518684104923
aF-2.567417618280728e-128
aF-8.33807415256212e-08
aF-1.6915216786326065e-27
aF-1.579781577729748e-107
aF-1.010907927598432e-30
aF0.0
aF-0.01787005675995127
aF-8.220236406632972e-54
aF0.0
aF0.0
aF-1.2106038132453228e-55
aF-7.735725049784439e-92
aF-9.052648862667547e-42
aF-9.180601744207821e-05
aF-3.747343941161161e-36
aF-1.0143989906582161e-50
aF3.60234785074654e-101
aF-4.2407094648576833e-109
aF0.0
aF-0.0005693025565305032
aF-3.707790774897753e-99
aF-4.248566156398936e-40
aF-0.0350368943234924
aF0.0
aF0.0
aF0.0
aF-1.8186761146404023e-29
aF-8.170711689309922e-160
aF-0.020135972069560755
aF-4.256338362095728e-79
aF-6.662138915620135e-61
aF7.300624132229649e-100
aF-7.760715248793146e-164
aF-2.1717760063845947e-166
aF-1.3710386739677803e-19
aF1.3676305163156653e-14
aF-9.457920069891424e-51
aF-1.2991373226029955e-48
aF2.1928972282932022e-91
aF-1.2435479509016893e-110
aF-1.7419951054509812e-140
aF-6.724355174200357e-52
aF-0.045167527925490336
aF-1.391762432344708e-152
aF-0.00951644196816083
aF-0.03909593452238457
aF0.0
aF-6.496408639584791e-35
aF-3.433530841309021e-135
aF-2.898855680404718e-53
aF2.468385340720379e-09
aF-3.6767229051307295e-27
aF-5.5291330455114595e-114
aF-1.142666987829611e-43
aF-0.0049167508051832665
aF5.971265726493768e-160
aF0.0
aF1.3210940472700208e-19
aF-1.938012967483237e-07
aF-3.5776024504310534e-123
aF-0.05333549553862606
aF0.0
aF-0.012611336798859058
aF2.5852596484116125e-72
aF-7.652737845902025e-07
aF-7.611898499978621e-25
aF-0.02539746594973083
aF-0.02179687876755345
aF-2.042529446667768e-11
aF-2.6477660927693542e-14
aF-3.4981607173296873e-99
aF0.0002031721664947557
aF-1.6460047155821102e-30
aF-2.8108702020630778e-05
aF-4.2637632036253795e-56
aF-2.4997105505268304e-159
aF-2.805540713312509e-23
aF-4.737390873446183e-100
aF-9.381107735374472e-31
aF-1.0574859872859952e-74
aF-2.0091083650092284e-38
aF-2.6335331072109448e-16
aF-2.959466405479382e-21
aF-2.236760271235293e-136
aF7.700120424878139e-10
aF-1.095649913638481e-07
aF-2.476802352041038e-134
aF-0.011598068970279185
aF-0.00846878810063096
aF1.0148951949672027e-06
aF7.453401197314117e-21
aF-3.1560432574270493e-118
aF8.829604097676758e-70
aF-7.8889427745377e-09
aF-1.2106299464870794e-60
aF-3.3417625646750264e-125
aF-4.3179222313231154e-119
aF-1.1249351116081794e-07
aF-3.1812626017581788e-111
aF-1.2858100985275023e-19
aF3.927266798788415e-103
aF-2.816364838248281e-14
aF-2.593705535581452e-132
aF-3.299308143465786e-126
aF-4.8559943422329096e-05
aF-5.8512915265322106e-67
aF-2.962518016364906e-10
aF-1.8480044674219793e-66
aF-2.8610590249636685e-11
aF-7.820104968818581e-35
aF0.0
aF-2.9811201465068234e-46
aF-2.6372910311553706e-90
aF-7.223850698523834e-33
aF-5.682134451852134e-64
aF7.593835605901956e-11
aF-1.2661855296403506e-118
aF-1.3562386307575355e-45
aF-7.267399776346248e-25
aF-5.217852771321712e-110
aF-5.556423419940537e-147
aF-2.7843541468026867e-155
aF8.064290173005307e-49
aF-3.278422761280218e-50
aF-5.729395952608115e-10
aF-0.0006581299689099252
aF8.027151923782365e-101
aF-0.0015563195053903572
aF-1.4429424035165537e-144
aF-6.319447212354923e-06
aF-0.0046095107011766955
aF-2.6386027975621216e-57
aF-1.7284034893375924e-79
aF1.197045717843038e-60
aF5.471495220481068e-72
aF1.0998650013406278e-13
aF-6.749929917128879e-41
aF-3.5438891853449177e-20
aF-3.0129904630873684e-165
aF-1.3502551313035784e-124
aF-2.097222254139574e-86
aF-8.357034302868132e-148
aF0.0
aF-0.003274490643439362
aF-1.1288984290876192e-08
aF4.558168112967933e-10
aF-1.035463542188102e-100
aF-0.011915207473501818
aF-1.839713918119595e-111
aF-8.130500357123599e-75
aF-7.03312771740176e-43
aF-1.863333722617779e-74
aF-1.0515291123923592e-43
aF-1.7553768489520057e-38
aF-1.2088563243093735e-19
aF-2.658675240580803e-75
aF1.6369657594113417e-166
aF-1.6121449013273655e-152
aF1.6387871698712214e-34
aF-1.4919560413943595e-152
aF-5.50917763621382e-70
aF-0.011191347270008053
aF-0.0017867079181000775
aF-0.0006099128619631142
aF-5.897385218940076e-09
aF-1.0675512760398347e-06
aF0.0
aF-1.4103698898530793e-15
aF-3.552233093425992e-133
aF-3.4545534603399476e-77
aF-5.968400787760924e-162
aF-3.1838068344667196e-36
aF-4.128352768686414e-06
aF-1.7394308738709389e-97
aF-5.5480777897281595e-118
aF-8.094752323263644e-148
aF-1.9668001244060035e-134
aF-5.27477239107702e-69
aF-2.442334631910235e-90
aF1.349867561515917e-07
aF-1.011889063647148e-08
aF8.97853212114058e-163
aF-4.943532611082786e-07
aF-2.5237825836654163e-15
aF-1.1636228441695816e-108
aF-0.02962901710905618
aF-5.271340799367372e-91
aF-3.157380947524139e-135
aF0.0
aF-2.9969386219581313e-28
aF-6.768121103992278e-23
aF-4.142350548820537e-25
aF-2.504902681534985e-92
aF-3.054379844963518e-50
aF-1.391616875572793e-71
aF-2.1857761449644494e-74
aF0.0
aF-9.718390353295458e-75
aF-3.976902029599718e-52
aF-6.986686186400225e-09
aF-3.258934852808175e-27
aF-9.28994719603183e-58
aF-7.098953467266438e-07
aF-1.2071865991121377e-11
aF0.0
aF-4.408903154482098e-100
aF-7.768202031245403e-09
aF-1.9547802058752793e-08
aF-1.7485476734552225e-05
aF-7.59076942520065e-96
aF-1.5156713501478511e-22
aF-0.0022900866327971903
aF-7.788267640429231e-78
aF-1.5959008067498091e-10
aF-5.269425134169619e-06
aF0.0
aF-1.7675814247583446e-07
aF0.0
aF-1.7758739286022028e-35
aF-1.6610109292450806e-10
aF-7.755430491987695e-46
aF2.668373812530444e-27
aF-5.145013718447329e-114
aF-2.9430268052510964e-24
aF7.200408733751469e-10
aF-1.5431037995381617e-59
aF-1.0480631971286334e-117
aF-0.001295699757812553
aF-2.6129490980177405e-25
aF5.66044942916851e-20
aF8.283700001302083e-16
aF-5.0066167596238586e-33
aF0.0
aF-0.028982664420255523
aF3.329450117296947e-10
aF-0.012034739690620307
aF-1.1336845973493455e-42
aF2.3871985332526082e-09
aF-2.5143913697041592e-12
aF0.0
aF-1.2672827251007866e-104
aF-2.4572138038820897e-37
aF-2.0763345768076e-146
aF-2.0955747877493826e-07
aF8.985419894442681e-05
aF-1.288729566885228e-108
aF-0.0007532358603185175
aF0.0
aF-0.022889766296274223
aF-1.1562734067777893e-11
aF2.930763923237204e-132
aF-0.00799208361940811
aF-0.13598071942048867
aF-0.0007973633984265112
aF-6.5263821202233476e-43
aF-2.4261984734221517e-58
aF-2.4434367290833547e-55
aF-5.198790048767624e-14
aF0.0
aF-1.6121805168029124e-97
aF0.0
aF4.439795883578358e-22
aF0.0
aF-1.5007612441406336e-161
aF-5.7103610874854146e-34
aF-1.1115570567870124e-11
aF-1.4248298378254497e-113
aF3.5116518692713464e-11
aF2.6500245795812144e-22
aF-1.7114626273208994e-16
aF-8.624167580930832e-28
aF-0.0002688389622891695
aF-9.706628126179542e-07
aF5.458266364331535e-166
aF-0.00014175120463837183
aF-5.362268755014309e-10
aF7.848526690070963e-06
aF-1.7988261981690659e-149
aF-3.844078647656201e-85
aF-8.484865829117871e-64
aF-2.765182393485209e-110
aF5.264618117478151e-07
aF3.1599285426736656e-101
aF-5.446658948014444e-42
aF-3.7742970268282725e-06
aF-0.0014571705759242712
aF-1.6890746494146066e-68
aF2.4324215954116596e-06
aF-2.615497608503177e-11
aF0.0
aF-8.999840721800854e-104
aF-4.05861362554642e-15
aF-1.90868697595802e-166
aF-3.4062734896055077e-12
aF-1.4451001007316807e-96
aF0.0
aF-1.3362507978184177e-84
aF-1.8261073633181444e-32
aF0.0
aF-2.5607516075033658e-82
aF-6.33396923022008e-23
aF-1.6891194830973027e-07
aF2.2969694375334688e-09
aF9.441304914780316e-07
aF-0.0007874909890578684
aF-1.7829684186825905e-18
aF-3.790579458033278e-116
aF-1.8571744961183705e-38
aF-3.053063088309871e-44
aF-0.012293946663370543
aF7.455974180856549e-19
aF4.954285077439844e-106
aF-1.2563292091982933e-118
aF-6.736006258786985e-07
aF-0.005907709108015288
aF-1.806680777925284e-141
aF-6.358384719858956e-147
aF0.0
aF-6.093420398523871e-35
aF-8.729446132335155e-51
aF-1.580814562947243e-107
aF2.129103391637531e-30
aF0.0
aF-7.353619919681601e-35
aF-3.7144387205441173e-06
aF-6.14910636822961e-78
aF4.671245512683162e-150
aF0.0
aF0.0
aF-0.00034815758001302706
aF1.702516701202346e-73
aF-9.75927325248001e-34
aF-8.235001383448516e-26
aF3.596805568390398e-142
aF-3.7864548407210584e-16
aF-5.115907956751788e-10
aF-5.613680346796695e-59
aF0.0
aF-1.527764454905917e-100
aF0.0
aF-7.3359256778698644e-09
aF-3.236641566945784e-53
aF-2.6213548183683337e-05
aF-5.63832876372052e-128
aF-3.288055125543189e-86
aF-5.255113356034464e-147
aF-2.2720752121944275e-37
aF1.816085172515229e-95
aF-3.514664948949324e-116
aF-4.438210352240013e-105
aF-5.0294868182825145e-49
aF-1.2930149051627717e-82
aF0.00011324083694127578
aF-0.00033061089604841874
aF-1.579211138476392e-51
aF0.0
aF-5.951733940274943e-47
aF-2.8384986959990054e-44
aF0.0
aF-0.08730826335785255
aF-2.708971249957252e-31
aF-2.1833039120959565e-58
aF-6.557125993055586e-24
aF-7.558631301566933e-09
aF-2.548017063902899e-13
aF-1.3823874448906548e-152
aF1.1040256327948357e-59
aF-2.4892373427194574e-15
aF-0.00027378947171984177
aF1.602565300065306e-103
aF-2.7640377017280887e-164
aF-3.705509876794372e-55
aF1.1166561122318132e-19
aF-7.219247465321123e-78
aF0.0
aF-0.00015728003282780703
aF0.0
aF0.0003996076036404358
aF-2.1255691902134583e-10
aF-4.924129691454037e-42
aF-1.8348748395154327e-166
aF-0.0015826594700883467
aF-5.703250140188786e-61
aF0.0
aF-8.322146488790131e-42
aF-0.00019767397038182542
aF-2.867700485087587e-125
aF-2.1398684876312435e-27
aF3.9238046096991775e-12
aF0.0
aF-0.016230497126401986
aF0.0
aF-3.6450630145504403e-40
aF-2.1238505617494873e-108
aF-7.934313962780847e-64
aF-2.2888417102307533e-76
aF-2.9015147573790353e-52
aF0.0
aF-2.8455648673071134e-57
aF-2.3071695566120544e-10
aF2.1641998388547163e-35
aF-2.806518474987473e-50
aF-2.896855640219037e-45
aF-7.060164676000789e-18
aF-0.03642845364456012
aF8.773286021640875e-29
aF-3.2329894995091852e-40
aF1.3582381326371285e-156
aF-0.008994702482748551
aF-1.4223442617740966e-30
aF-3.59830337122459e-68
aF-4.453790610979503e-73
aF4.164308463825125e-05
aF-0.006433582786876304
aF-7.024331688450035e-52
aF0.0
aF-4.654383884694605e-69
aF7.734122458026396e-40
aF-7.315180919555412e-100
aF-9.949049597502002e-28
aF-3.0553788316732203e-40
aF-6.21603797863121e-29
aF-2.6432756449748063e-117
aF-3.5578542288938786e-85
aF-3.9627978559576175e-101
aF0.0
aF-1.765848602626762e-58
aF-2.4420929544666775e-21
aF-8.108386507681752e-58
aF-1.5784839156079927e-165
aF0.0
aF-1.6913815471441914e-67
aF0.0
aF-7.199360503277636e-156
aF-3.808411068556263e-159
aF-2.4668423182747994e-05
aF-5.503160176164135e-109
aF-1.4278552009565953e-57
aF8.331891078418815e-108
aF-0.007477394404961454
aF0.0
aF-2.5633374973774973e-164
aF-2.388323627574566e-14
aF-7.142392919476532e-09
aF-1.5836315175755612e-135
aF1.848799923920713e-70
aF-3.537340961198191e-56
aF-1.9960440246110516e-37
aF-5.401340406886606e-33
aF-8.034043222998039e-29
aF0.0
aF-0.0005428666818378973
aF-0.00015541670286217037
aF5.172405471697184e-27
aF4.226763167056741e-06
aF-3.1659933903372065e-05
aF2.735564495991742e-29
aF-1.3762745916757427e-163
aF-2.9358040920426847e-21
aF-2.596733102603542e-99
aF-8.929202378343301e-05
aF-0.024820042891834437
aF-3.169780935541561e-131
aF-3.2663305016985924e-133
aF-4.104109838109344e-35
aF-1.2239021525045188e-34
aF-5.178782850882364e-42
aF-2.1066734533054195e-11
aF-3.0613635508804945e-13
aF4.882548439178107e-07
aF-1.1629283644095625e-26
aF8.307513937747855e-147
aF-3.0465451844888607e-27
aF-1.3267736968525613e-30
aF1.1988485067708395e-14
aF-1.543753970762453e-07
aF-4.10255367620534e-08
aF-2.9212543809264024e-36
aF-7.70989794256235e-06
aF-3.300130316200885e-47
aF-7.359518904444355e-64
aF-1.680962975425905e-08
aF-0.001367105408771851
aF-1.65695043701519e-18
aF1.8440594280071842e-42
aF-2.9487167055623605e-135
aF-3.842140894067378e-16
aF4.423491747861709e-107
aF-1.4777363030107514e-10
aF0.0
aF5.061930623800223e-72
aF-4.8119779615055706e-42
aF-2.0480149036602825e-15
aF0.0
aF-1.1202066017682936e-45
aF-0.01919548077939879
aF-2.4920248219438636e-10
aF-3.1693665387215237e-88
aF-1.4009605019845901e-47
aF-2.7749399956486333e-24
aF-4.360799234201949e-34
aF-6.611926724308673e-38
aF-2.9814476126093044e-47
aF0.0
aF-3.4207682577565365e-115
aF-8.143261812826125e-06
aF0.0
aF-6.005467051116049e-69
aF8.022176059332756e-11
aF-2.1237991838759293e-32
aF0.0
aF-1.0306743343411382e-31
aF-2.3323830501205742e-117
aF-5.942487274956457e-23
aF-1.1184533193385732e-55
aF-9.195646858222407e-116
aF-2.1832226483792994e-68
aF-4.4305076075298274e-117
aF4.161802568272877e-146
aF0.0
aF-5.746788602698121e-07
aF-2.1192689457111242e-47
aF-0.01663150865328687
aF-1.4754660362880854e-119
aF3.3374540858744163e-113
aF-1.0640992299009739e-14
aF-6.536060763822124e-70
aF-2.1471580178163934e-08
aF-0.0012873426643395117
aF-5.323378455356454e-63
aF-0.03657901185503031
aF-0.03390372776507874
aF-2.83339029973798e-130
aF0.0
aF0.0
aF-2.1988635716603536e-117
aF-2.4484749591630093e-11
aF-1.3907788316715478e-161
aF0.0
aF-8.217487418871231e-19
aF-1.522377991142595e-26
aF-1.4696289705609115e-51
aF1.2120779971430195e-126
aF-1.4683956853089437e-107
aF-5.2843384287450034e-114
aF1.0717293789286818e-60
aF-5.620305866199449e-59
aF1.769227292502674e-12
aF-0.02830052682068755
aF-6.685394292604695e-156
aF-2.603471913997732e-99
aF-2.8588262952290107e-50
aF-1.1823765175525726e-52
aF6.106868610420545e-163
aF-1.1721824265808046e-17
aF0.0
aF-2.6902054008554955e-36
aF-2.3276353603286373e-05
aF-6.16981841301412e-38
aF0.0
aF-4.527397292513344e-152
aF-9.464068196202141e-11
aF-0.044448052227082424
aF1.8676298225440693e-40
aF0.0
aF-0.0005149933148265325
aF-6.934239695052771e-72
aF-4.629693490687457e-31
aF-1.544887193262557e-12
aF-8.980622532974689e-93
aF-0.027075548580428824
aF-3.420859737177628e-62
aF-1.388417323317438e-99
aF-2.0864614549738066e-136
aF1.1159811366303215e-86
aF-5.283304338876582e-09
aF3.564990198596467e-18
aF-3.3439872796068155e-52
aF-0.0003656010535508068
aF-1.4060113264942532e-91
aF-0.02594334993518712
aF0.0
aF-9.546421119109671e-84
aF-2.632723755374219e-07
aF-4.885107122740065e-146
aF-1.0214089429575497e-15
aF1.7361446307529137e-12
aF-3.6320641117247e-71
aF3.601705638926217e-126
aF0.0
aF-0.03646052224038371
aF-1.4292696734862517e-61
aF-4.910968790845948e-15
aF1.6874061329443823e-18
aF0.0
aF-4.8242828477989433e-14
aF-0.00593757085695603
aF0.0
aF4.1246803920036733e-22
aF-6.841594271096689e-35
aF0.0
aF0.0
aF-8.258078864347397e-39
aF-8.324628468110255e-12
aF0.0
aF6.818005478394872e-08
aF-5.765947064435143e-78
aF-1.1050276834451172e-107
aF-1.109678318504958e-07
aF1.0072532677092895e-60
aF-1.9762829972472464e-99
aF-1.531187340900096e-54
aF-2.3097113152174772e-40
aF-8.688936487766417e-63
aF-2.5363296665015515e-147
aF-2.5186575991125035e-28
aF1.0334282525290263e-93
aF2.522687063351499e-132
aF0.0
aF-4.6508296859560686e-15
aF4.5598485012468474e-14
aF4.316076219421829e-05
aF-2.0709512192390055e-164
aF0.0
aF4.5371751122699756e-07
aF-8.567566983829926e-05
aF-1.74886243381015e-104
aF-6.022271966981942e-43
aF-2.0777522690182334e-117
aF-1.8341391539436237e-23
aF-3.682410851457754e-104
aF-6.521799274720459e-26
aF-5.38023071377899e-07
aF-3.503066122642521e-55
aF1.602536815090833e-95
aF-1.2172057018917332e-101
aF-2.0227904136622235e-68
aF-7.115865137334768e-47
aF-9.723380166103103e-14
aF-0.0003830520405875391
aF9.976741730777095e-20
aF-5.120331120139008e-109
aF-1.9676253316393325e-117
aF-2.379242142235275e-13
aF-1.4248515534799965e-07
aF-1.4570851293823052e-10
aF-0.0019218696622581952
aF0.0
aF8.867775011996236e-53
aF8.281996509200026e-41
aF-3.102332296712128e-52
aF-9.008234352475194e-07
aF-2.3070790977476462e-11
aF-8.080644681802279e-37
aF-0.001569623141094595
aF-1.371528940843744e-07
aF-0.09080984021863515
aF-0.0005285832326280018
aF-2.288166361760529e-99
aF-2.736633058844215e-45
aF-3.02473229629927e-20
aF-9.817492686712095e-27
aF-0.0587204488509879
aF-0.039535985087780307
aF-0.0002456113700245237
aF-2.5909816615444462e-45
aF-2.3021876781526226e-05
aF1.088087696020952e-113
aF-8.041276961586506e-06
aF-1.3115556017544605e-36
aF-0.0419971199543344
aF-6.593835642362454e-10
aF0.0
aF-3.3948086660322752e-43
aF-0.00013330143976312232
aF-2.7626508671101724e-15
aF9.490912738219536e-20
aF2.1614474214399014e-21
aF-1.2772895669264909e-42
aF-6.239669351135816e-78
aF-6.066079172990175e-72
aF1.8823711331062353e-15
aF-1.725942235007942e-95
aF-8.505211393862908e-99
aF5.718783114401977e-138
aF-1.5712641829875168e-21
aF-0.007172141761062824
aF4.240856772313416e-05
aF-1.562011621363981e-17
aF3.8615540917102825e-05
aF-1.7555742559754974e-06
aF-2.255287499529503e-21
aF-2.585146289183376e-21
aF-1.5292064344071583e-17
aF0.0
aF0.0
aF-0.00012565533885461441
aF6.948062552778752e-24
aF-2.0532536207989541e-07
aF-0.004201138063238644
aF-2.0085567321834905e-11
aF-5.876579597808145e-148
aF-8.955660078989456e-75
aF-1.1312372487501791e-101
aF-4.413670821275097e-15
aF-5.818356356080462e-35
aF-2.3401857902194835e-92
aF-1.4963394264891426e-05
aF-7.083258153995607e-95
aF1.3145457117026233e-06
aF-0.018307939608108784
aF-0.01914068571739699
aF6.525124981337704e-18
aF-7.238623248145918e-42
aF-5.58894852972964e-23
aF-2.3856327894913445e-25
aF-1.2391246171361901e-84
aF-3.448925554982813e-09
aF0.0
aF-3.598446657646703e-25
aF3.75056304944762e-08
aF8.252381627240962e-29
aF-6.376620962992662e-08
aF-2.786419134599752e-47
aF-0.005247115300855321
aF-0.03380730676433216
aF-1.085065945620809e-51
aF-2.1528877129120813e-11
aF-1.7308909804876507e-66
aF-3.3696346152682375e-147
aF-8.039388759719145e-63
aF-1.4828601743508174e-25
aF-0.00048568112263409734
aF-1.981512456880529e-102
aF-0.0011073362786537904
aF-3.936013911490291e-95
aF-0.012836589929618229
aF-5.257908715856542e-20
aF-7.169490365682415e-06
aF-1.090759240235813e-80
aF0.0
aF-4.1814224266079465e-05
aF-1.7102624005730006e-18
aF-1.337987871942488e-117
aF-0.0033282382368799825
aF-1.7533662823630666e-99
aF-0.00025443407366999827
aF3.1236284918149366e-50
aF-1.4546157338375142e-16
aF-2.62245226929782e-24
aF-1.7163997764196204e-28
aF-1.793195496652122e-74
aF-3.066589983140432e-118
aF-4.521838661506596e-147
aF7.323325256444462e-11
aF0.0
aF-5.824936324026041e-52
aF0.0
aF-2.9345387581992134e-25
aF-2.72908281870963e-25
aF-3.2807070745640726e-24
aF-1.5884914196719105e-41
aF3.358546165968807e-126
aF0.0
aF-1.0155897504398835e-55
aF-1.9322958938727625e-128
aF-5.771590818787806e-38
aF-4.207399468478241e-147
aF-5.103761616482002e-34
aF-1.370394069633603e-10
aF7.834309602885579e-20
aF-6.337601342328086e-156
aF2.2509946344398718e-06
aF-1.7634779906530522e-115
aF-2.8562313051703907e-122
aF-6.328308252962499e-46
aF-6.642749814109639e-59
aF0.0
aF-1.4040561854489783e-153
aF-2.3027472785636873e-11
aF-2.2266615943769576e-68
aF4.3141404936203984e-27
aF-4.4812344215888973e-42
aF-2.0007607050395474e-27
aF-3.121068160039384e-136
aF-6.384346884150035e-49
aF8.1776010732084325e-53
aF0.0
aF-1.9064955033668185e-24
aF6.537957471399223e-10
aF-1.6835054873273506e-50
aF6.343416033714725e-10
aF-5.865393639864293e-46
aF8.898334138233523e-123
aF-0.0013716038063357838
aF-6.000481015792976e-98
aF-6.111532208928668e-14
aF-2.4837728517317073e-24
aF0.0
aF4.1502925509501735e-116
aF0.0
aF0.0
aF-1.1398046704461037e-83
aF2.467398438264665e-40
aF0.0
aF-1.971745150541762e-147
aF-2.105379400185148e-90
aF0.0
aF-4.159071231767525e-31
aF0.0
aF-3.170098775490491e-36
aF-7.026102772473244e-113
aF-0.002156090623475427
aF-1.0537339703173446e-101
aF1.3777658267989861e-17
aF3.5734089919845547e-38
aF-2.5693231623261287e-155
aF0.0
aF-4.760140549032646e-05
aF-2.413981902943455e-50
aF-7.973236801192527e-05
aF-3.948380994979749e-31
aF3.922055808106914e-116
aF1.2811789091034699e-17
aF-2.3573301266595115e-24
aF-1.604749106487286e-28
aF-9.738730807260089e-148
aF-2.577041480396671e-110
aF-1.8875493572236855e-116
aF-1.602111007332534e-70
aF-4.411723153354914e-05
aF-5.412580288041238e-38
aF-6.916192306543248e-129
aF-1.543336428917136e-18
aF-3.188117338133269e-16
aF1.7744823301937862e-26
aF3.714498107781712e-116
aF-1.4306227500678121e-56
aF-9.839277825729565e-102
aF-9.541510214877184e-163
aF-1.3638708880535135e-07
aF3.139540862345231e-126
aF-7.648297070522604e-54
aF-2.1917707124309463e-92
aF0.0
aF-1.3513967776723655e-67
aF-1.898661629165548e-134
aF3.840505124122697e-22
aF2.8895755192419945e-50
aF0.0
aF-2.9974917446912418e-36
aF-1.2733471747126771e-10
aF3.809247773164663e-20
aF-4.1969033802077325e-15
aF-5.534889476762671e-35
aF8.416935507829516e-155
aF-2.880079744604633e-90
aF-3.7960689313452754e-137
aF-7.135308969485319e-161
aF-6.497632160302789e-29
aF-3.139199737535328e-49
aF-1.7172458388958947e-34
aF-1.8591003248403677e-14
aF-0.00024904797995933657
aF1.462121897554329e-73
aF-2.2012515398395747e-05
aF-5.957658712739588e-05
aF-5.088435617889209e-38
aF2.927108406021176e-101
aF-1.2994023353411074e-97
aF5.882945753731895e-103
aF-1.816057671770865e-27
aF-7.90571826946719e-111
aF-5.921229960469383e-49
aF-1.5181675430360937e-160
aF-5.498540243499699e-09
aF-3.2249932061876058e-31
aF-5.957862399757984e-76
aF1.1451735492644826e-135
aF-1.3988357720653494e-19
aF1.9120021136559294e-51
aF-3.0668968179273006e-85
aF-7.51735221071816e-05
aF-2.241746011066437e-24
aF-6.234433032123731e-59
aF-2.801540013200664e-27
aF0.0
aF-1.0855183202722323e-11
aF-5.030803935492127e-82
aF8.194187614118055e-135
aF-5.8230230328796765e-30
aF2.8748264812153193e-160
aF0.0
aF0.0
aF-2.135816100906689e-24
aF-3.493161332907498e-57
aF-1.830121742079975e-130
aF-6.281971939024786e-95
aF-1.284439972349169e-29
aF-3.5444448538228325e-13
aF-2.073482322700492e-20
aF-8.825790317460451e-11
aF-5.268940673474539e-23
aF-5.441951277938491e-20
aF-1.0191633309977695e-24
aF-1.7972802099590438e-134
aF-7.207913281710038e-54
aF-3.676491650200513e-159
aF-0.02861101317307312
aF-1.1749464084827403e-40
aF-3.91496472681854e-42
aF-1.1677792402570178e-67
aF-5.8655575840270675e-59
aF-8.643262650457022e-102
aF-0.012421804296374076
aF-2.777161351938951e-78
aF-9.746310700381257e-05
aF1.2540012936234588e-20
aF-1.0836781164305522e-141
aF-1.4356167429939325e-138
aF-3.2318822051722426e-57
aF-4.795196937128456e-38
aF-0.00929293754494504
aF-1.4973953653707398e-44
aF-1.4525064632353262e-95
aF-7.8134465742909555e-90
aF-4.676178807976819e-131
aF-1.6007983799866362e-86
aF-1.5442375606274546e-34
aF4.375623532720212e-115
aF-1.4717772223765712e-18
aF0.0
aF-5.531625044164846e-59
aF-1.9597119875843413e-07
aF0.0
aF-1.6744176492589509e-15
aF-2.0384880509387146e-24
aF-1.6663053034221892e-155
aF0.0
aF-6.955988476191559e-13
aF-2.12426296077886e-12
aF-0.03839037752438559
aF1.4274675736211581e-95
aF-0.018948635437298827
aF-0.00015246797563039466
aF-0.006370507574446474
aF-8.131301181940896e-160
aF-0.0001542379622063292
aF-2.421480362780945e-10
aF-0.0025654319516730606
aF-0.00015334094379623977
aF7.507053986748887e-49
aF0.0
aF-0.025864365560951123
aF-4.694217091139287e-78
aF-4.3407482546136157e-17
aF-1.2780968533747143e-07
aF1.750685182316282e-148
aF-0.0018922653078898024
aF-0.040973440529493685
aF-0.0034719336179413387
aF-3.444039327048756e-15
aF-0.00041390159651611655
aF-2.563395053896396e-06
aF-0.011747374447527409
aF-7.976504907769201e-153
aF-0.025908934071075113
aF-0.008105926883084638
aF-1.1249786010836235e-20
aF-2.495468454468742e-25
aF-3.137115424502653e-148
aF-9.029012655580868e-05
aF-3.637771151214275e-45
aF-1.1924360433448479e-92
aF-0.024425519950714118
aF-3.362628446456414e-06
aF-0.000869770873764798
aF9.135311675146227e-55
aF-0.0008001710679937415
aF8.37550675296695e-26
aF1.7625752278217486e-139
aF1.4242692917210878e-20
aF-5.946725643515418e-97
aF-1.1102212558487396e-92
aF1.2068944588817245e-78
aF-1.550567014438948e-49
aF-1.4202741198160393e-18
aF-0.0006071318066429704
aF-5.067729657018041e-06
aF-7.574919098277399e-39
aF-0.010033920275134129
aF0.0
aF-0.00010762153138606048
aF3.342844074579229e-59
aF2.9674321444401915e-59
aF-0.05618032301474647
aF1.0847455037278962e-83
aF-0.03065822531242552
aF-0.012278818814803662
aF-1.063219624984076e-56
aF1.475886107013878e-28
aF-5.46025202784579e-26
aF2.5147811387016245e-06
aF-4.97937357786755e-08
aF-1.1879931307575773e-07
aF-0.002999863197890068
aF0.0
aF1.5536018732670612e-40
aF-0.00032804672178040326
aF-0.011011676611556843
aF-7.407602480829637e-10
aF1.2653066159782797e-08
aF-3.2356897642834785e-09
aF-3.9855554463091404e-69
aF-0.0019218429038008918
aF-0.004476042730927592
aF-2.698594186768958e-09
aF7.331004249700959e-101
aF3.576139624765532e-05
aF-1.543849050253633e-12
aF-4.372759181614035e-05
aF-4.414969151159808e-16
aF-0.041314715323627724
aF-0.0007811674504613369
aF-3.051626206502626e-10
aF0.0
aF-0.02179525001285787
aF-0.009907412543835108
aF-4.955090337023566e-16
aF-7.91117678983121e-44
aF6.042810023087229e-10
aF-3.0701990713389543e-05
aF-2.4354221050574567e-74
aF1.908195224647268e-15
aF-5.262220824182316e-18
aF1.4155568087626943e-59
aF-0.0008172608261531355
aF-0.008706358217963546
aF-6.166418148337329e-12
aF-0.006906389284780022
aF-0.01870108983356808
aF-2.6985812525175265e-41
aF-0.013107431665992172
aF1.2877334871062721e-06
aF-0.0003747049964707462
aF5.6999770688580815e-56
aF-2.5980562272937012e-78
aF-1.4211683298390063e-76
aF-3.951395496214427e-05
aF-2.850474587985403e-10
aF-4.45257186959147e-08
aF-2.472314603085474e-15
aF0.0
aF5.45911996539185e-07
aF3.1319642270170585e-08
aF-1.7132279382025125e-25
aF3.600842216489142e-06
aF-1.4359797312144895e-92
aF-7.479696662068212e-08
aF-4.558234179010701e-12
aF-0.0300532701349489
aF-0.003856256805266939
aF-1.5121102046982917e-42
aF-3.1408925102208904e-09
aF-1.6542591904692925e-53
aF-0.033748032316644624
aF3.702405792311528e-06
aF2.6626656950134184e-06
aF-7.126306080141096e-05
aF-2.445342104312901e-78
aF1.0451472520868857e-92
aF-1.9160315288862867e-84
aF0.0
aF-9.836434490010105e-20
aF1.0832995584386813e-116
aF-0.0019132915089609091
aF-7.627027985031251e-11
aF0.0
aF-6.065725184022838e-106
aF4.7721175696435406e-08
aF-0.00778555593622707
aF-5.728614349994445e-54
aF-8.383566302328097e-28
aF-1.7622028233858184e-13
aF-3.707985222324009e-141
aF0.0
aF-0.00012635926254628787
aF-2.3790044859535245e-06
aF2.842439115412122e-41
aF4.1102915418133786e-100
aF-0.013224433082931716
aF-0.000198696577518486
aF-0.00022856692913955792
aF8.264225531076212e-53
aF-3.5246577205420336e-12
aF-6.995542388130938e-100
aF-2.2729752132959908e-32
aF-1.0219531285388194e-118
aF-0.0007430658077170517
aF-9.344020350021416e-20
aF-3.3080827646027596e-39
aF-2.5677498063842306e-139
aF-3.224676256988955e-12
aF-1.5535257058536827e-146
aF0.00010567944118193582
aF-1.4643797417864269e-05
aF-0.016942687637087506
aF-2.1445543022731905e-14
aF-2.229241463237822e-19
aF-8.893376723707397e-20
aF-0.01347638475679952
aF-2.0759689411539963e-08
aF2.717648836251905e-07
aF-6.217842911311491e-96
aF-0.008689287464480737
aF-2.212550895095783e-08
aF-9.960392332956099e-09
aF-1.5075785162617806e-18
aF-0.01250681403256514
aF-1.3406707667199269e-103
aF-2.0084897088146768e-97
aF-1.6007058010706043e-115
aF-0.002215435769055326
aF-5.928031211367602e-118
aF-3.2128603570717643e-17
aF-6.99003685277139e-139
aF-2.3383217773055307e-114
aF1.7370325501524885e-72
aF-5.317867964979706e-103
aF-3.2045629374699945e-08
aF6.318601593571831e-25
aF6.819789638536477e-40
aF-0.004734440743331782
aF-1.7381687246350443e-20
aF-0.04251143355968979
aF-2.8530785431887453e-112
aF-1.3384250591845809e-09
aF-0.008430616145237633
aF4.067023557373877e-73
aF3.0058229335915365e-78
aF-0.0001985826271547022
aF6.946472981284113e-05
aF2.716068273485197e-12
aF-0.00029009854550747575
aF-0.007825799119636113
aF8.291340652520227e-94
aF-7.631698599450498e-08
aF-1.0479179832200728e-118
aF-1.258700850037427e-07
aF-0.00035404511124840105
aF1.619427659031775e-72
aF-8.059935138463615e-07
aF-5.256913686573629e-30
aF7.123559201236053e-07
aF-3.4373046711489413e-53
aF-1.4264729959488266e-102
aF-3.271589499591278e-48
aF5.5190336278018025e-56
aF-8.487588165591917e-12
aF-0.01605012628857059
aF-0.0002773308587353262
aF-1.805493945476568e-25
aF-0.012866190451430896
aF2.3711530435205986e-29
aF-0.026685235088283927
aF5.8873811225254356e-40
aF-8.077730674873785e-111
aF-5.813675432671808e-07
aF-1.0746300949080144e-25
aF-0.021874382362490886
aF6.899631970105865e-05
aF-0.009419446840755715
aF-0.00018470414274590776
aF-4.6081739698115353e-119
aF-0.00025853389242749434
aF2.714672667893046e-56
aF-1.016495451857373e-52
aF-0.00995146275559292
aF4.8083471615327534e-58
aF-0.004948170463876075
aF-0.012972083509696785
aF-2.4660570928162766e-135
aF-0.0002481369571844789
aF-0.028291899168547525
aF5.3015604892260294e-107
aF-0.00016949616836228385
aF-0.0018524928616797337
aF-1.4654033030520532e-115
aF-5.908910816942459e-42
aF1.0650198916501383e-40
aF-2.4948788943671277e-41
aF-0.0025224552270507903
aF7.210394566821927e-06
aF-1.5248201249037988e-09
aF-1.2195771927268207e-150
aF-2.84072594138494e-151
aF-4.054788324159601e-149
aF-7.985120497516583e-12
aF4.745466830174614e-80
aF-1.4084623047140335e-05
aF8.811288695309192e-05
aF-4.384506027154965e-05
aF-4.92929388521108e-11
aF-2.3684424327614532e-122
aF-9.355081376882179e-78
aF-2.2364870842874988e-69
aF-1.2711071463213906e-88
aF1.8556399125639926e-17
aF-2.701605206089005e-112
aF-0.058249356540237565
aF-4.8356576222305965e-25
aF-0.0056580663381403115
aF-7.736519514071405e-12
aF1.4227520144555602e-64
aF1.5847550815739824e-42
aF1.9609079745736263e-28
aF-0.0015658226904518432
aF-1.8525733112704362e-108
aF-0.0016477987088200606
aF0.0
aF-0.009502390968030381
aF-6.067372045045481e-05
aF-5.061699044837937e-88
aF-0.00027215825060524423
aF-4.504449628345936e-12
aF6.396886320639312e-20
aF-3.3822975875496093e-20
aF-0.00966542935431187
aF1.4690072590954598e-42
aF0.0
aF-0.0005218687485824208
aF-0.01945048902363314
aF-0.01427719522823541
aF-3.606443346666473e-40
aF-3.495614703404762e-125
aF-3.2198486217273726e-09
aF2.8867860022555554e-87
aF-2.707473667346583e-44
aF-4.885341984090747e-103
aF-0.01398645185957116
aF-1.401418484390992e-42
aF-0.017564693181802073
aF-0.0001678351857112717
aF0.0
aF-3.11535052741231e-127
aF-7.38611086415982e-12
aF-2.676194999603353e-121
aF4.0746205796843706e-06
aF-1.975845981399131e-15
aF-6.895692466318336e-15
aF-1.507058794810182e-63
aF-0.044091433418686314
aF-1.1728868150292643e-07
aF-7.364971192000133e-111
aF-7.076361023424527e-05
aF3.6786201997363973e-07
aF-4.3197435732819724e-16
aF-0.03993074670551888
aF-2.2458485668612793e-15
aF-0.0006465622688722934
aF-1.4766403762653703e-104
aF-0.0025327192883392046
aF-2.7885994980441527e-47
aF-6.551604531358287e-13
aF-6.835437628758341e-51
aF2.1203809651536409e-10
aF-1.3482846324379513e-145
aF-0.007196417176408296
aF-3.672108667198662e-43
aF-0.054212739461781206
aF-1.9963801492289044e-09
aF-0.0022735338433320968
aF-0.020979320515039986
aF2.8266051721802173e-08
aF-1.6441737977246411e-06
aF-0.00041128295803388726
aF-9.259842309793355e-133
aF-1.3785543579603303e-41
aF9.898085240943414e-32
aF6.604899143991352e-66
aF-4.520471940450238e-26
aF-3.1474169299873956e-05
aF-6.795649218195282e-07
aF1.9772523654488562e-07
aF1.438405030815729e-63
aF-1.3440517599865214e-58
aF-2.8955028452958157e-78
aF1.1954165804248499e-59
aF-2.6254322968833143e-61
aF-2.6035327015788107e-15
aF1.4570366417122617e-07
aF-0.015158627019482621
aF-2.380230792811872e-41
aF-0.02225713774104947
aF-6.551210782254642e-06
aF-3.707462348803162e-05
aF6.022309734063282e-20
aF-1.0821351488512748e-07
aF-0.051762766860787804
aF-0.0054216813391502
aF-1.9675174689582647e-133
aF4.8756711979137315e-45
aF-0.011041567215183875
aF-2.752401207647094e-05
aF-4.716424225725314e-10
aF-0.007337223778919641
aF-0.013876788988112416
aF0.0
aF3.888012292840844e-09
aF1.2915006662467963e-64
aF-0.022571676550290385
aF1.8136489607750466e-25
aF-0.018324349416887934
aF2.8261075472184694e-78
aF-0.01732761249157416
aF-0.025281853199665645
aF-1.7624282456347155e-58
aF-5.90615490818688e-45
aF-7.644797082698318e-46
aF0.0
aF-0.06182051304163555
aF1.4499848462101405e-34
aF-0.012078380498468752
aF-0.00017476570120184966
aF-1.2930603254773693e-35
aF-1.3084331511968618e-102
aF-1.7336516975928634e-25
aF-0.011331633857441568
aF-0.0035918861096490146
aF-0.00031791062540250823
aF-0.033343071366687765
aF-0.00788090664154906
aF-5.184117087593685e-32
aF-0.013351950272432609
aF-1.7655544325242009e-29
aF5.5691911246191464e-09
aF-6.804654480932087e-05
aF-6.504311238158334e-93
aF-2.278824765874518e-05
aF-8.675988051511481e-148
aF4.27310861184353e-06
aF-0.0013443712521643853
aF-0.012746973880193632
aF-7.166264843487979e-23
aF-0.05050747951871497
aF-0.002618872824073558
aF-3.4401296537344235e-07
aF0.0
aF-5.281219628887072e-162
aF-8.478880400895052e-132
aF1.341328543312131e-63
aF2.2512305351253923e-05
aF-7.986706181640235e-11
aF4.998170653736256e-44
aF-4.50477138445602e-23
aF-0.0006628167612281657
aF8.883109374224662e-17
aF2.0652480045000105e-06
aF-1.9453415355095693e-122
aF7.5163983661947735e-65
aF-8.192607834609012e-20
aF-5.159301199394303e-25
aF-0.010694842294221114
aF-1.7472948854598468e-29
aF-2.807047108259874e-97
aF-0.032294892915504234
aF-3.6039203437408305e-69
aF-0.023504043461685716
aF1.5461696745982778e-05
aF-6.327559971400681e-54
aF-2.373164168584219e-09
aF-1.09752949194748e-148
aF-2.3345481486464803e-155
aF2.601828748860027e-150
aF-5.943328350736178e-05
aF-4.282950539952037e-78
aF-6.947518813777414e-15
aF5.569118696805129e-11
aF-9.328128480001967e-20
aF-0.00822297790736093
aF1.1501250982677792e-11
aF-2.5355809815006958e-26
aF-5.763501223553231e-77
aF-1.1412500014761213e-29
aF-0.018049977331146966
aF-0.013330121711097258
aF-0.04100025633293532
aF-2.730846733079091e-89
aF5.03790607370878e-22
aF-0.0002397219199507336
aF-1.3227915030805267e-166
aF-2.164587763506342e-09
aF-1.470600699470819e-15
aF-1.5119000345148623e-52
aF-6.267845509405596e-20
aF-5.0125457289954515e-06
aF-0.0197291370812346
aF-1.1195639422230955e-51
aF-3.9456946603874535e-156
aF-2.8965144573355246e-17
aF-0.0018273824196960164
aF-0.0007900130255900692
aF8.499716781107729e-58
aF1.004940758290817e-160
aF-0.016469685109248178
aF-3.361998652153117e-15
aF-6.643268930484547e-06
aF-0.004596171140563167
aF-7.582828495331357e-10
aF-2.4876354721678987e-57
aF-5.714841881828021e-26
aF-0.00860180940099402
aF-5.0802657459081185e-12
aF-5.011165704994468e-07
aF-9.149023591399912e-126
aF-1.8001361406141523e-62
aF-5.4301151902251255e-104
aF4.612580239341459e-69
aF-1.8431915994110272e-14
aF9.333824537178215e-23
aF-0.016975928823458657
aF-0.06839050040369951
aF-0.00012938195849953482
aF-0.006346626081048145
aF-1.4146012217995937e-60
aF-0.00016159880228334706
aF-0.043638030162096726
aF-1.2750203734091909e-15
aF-6.501605604534949e-12
aF-3.593886380530125e-48
aF-3.3761033324292104e-29
aF6.215911224301324e-08
aF-1.0519977980673793e-15
aF-0.009883329277436495
aF0.0
aF-3.65410648647455e-25
aF-9.129238611206195e-38
aF-0.0005425481231365495
aF-1.5061632524563774e-20
aF-7.053120055967678e-05
aF-0.01741696856136593
aF-4.397834375132286e-103
aF-1.9009831477451822e-05
aF-5.6096554819691406e-21
aF0.0
aF-1.584712097953302e-12
aF-2.7048535238368994e-131
aF-0.001569647851891299
aF-0.00820881137168063
aF-5.439322033447248e-163
aF1.0572815014312038e-64
aF-0.00036149756192327843
aF-0.004767333870252949
aF-0.010322870278278093
aF-7.706230925766262e-119
aF-0.03521028001464835
aF-4.236087599155844e-59
aF1.2710277624584133e-72
aF-2.071089486194758e-15
aF-1.2109634274778025e-103
aF-0.0047086787273115955
aF-0.05843868999857399
aF-1.3031766725647557e-10
aF8.215527084817091e-17
aF-1.3072746491980756e-11
aF-8.239641174260944e-15
aF0.0
aF9.759338093407739e-60
aF-7.79477586312805e-84
aF-2.57841472048273e-47
aF2.3560120110983738e-20
aF-0.02077998583512528
aF-0.013405131147722711
aF-0.007906020427098258
aF4.1134216947619875e-61
aF-6.277222153789273e-12
aF-1.1700995765382662e-09
aF-0.021311108617602756
aF0.0001289015562047753
aF-0.004179879833471071
aF9.539011122453994e-55
aF0.0
aF-2.5350583080393897e-38
aF-5.655186755969122e-05
aF-0.00508767212935351
aF-6.1298303497496e-12
aF-0.04958428007055434
aF0.0
aF-5.986850289984251e-06
aF-6.852448302635159e-09
aF-0.031051402008208516
aF-1.9397953831494934e-70
aF-2.2594790525561913e-104
aF-0.004146492141004627
aF-0.015112513075476914
aF0.0
aF-2.7370662412396206e-53
aF9.857612683693589e-05
aF-0.0001838719279016182
aF-0.03310704841118424
aF-0.0038531815635481585
aF-8.027573522155023e-79
aF-2.186781913747726e-09
aF-0.03176237381000789
aF-5.2758532436687025e-06
aF0.0
aF-1.993261544350931e-11
aF2.4572374975824112e-08
aF-1.3600699430127756e-26
aF9.265593356104037e-96
aF-4.052736065186785e-26
aF-0.015640047648600466
aF6.329706626691914e-49
aF-0.010276303571736646
aF-0.03612319738866493
aF-0.004165909208821243
aF-1.1232355902470585e-88
aF-0.00015039132322323089
aF-0.011283649638909442
aF-0.014024116606898413
aF1.221831620088448e-08
aF-1.1879415461635609e-18
aF-2.1758928409364497e-50
aF-2.53870513370772e-72
aF-9.775153197992077e-16
aF4.475397296208106e-163
aF-5.887852395793141e-12
aF-1.1684891115019927e-119
aF-0.009593078907194305
aF-5.7606876190958126e-12
aF-1.2214926661456982e-74
aF3.6340599129212454e-60
aF-4.232038231564939e-31
aF-7.25077263461292e-134
aF-2.983675367630712e-55
aF-0.03403199894897509
aF0.0
aF9.100888526136962e-139
aF-1.1113504167030726e-103
aF-0.015396185466369986
aF-0.03321228531563678
aF-4.1004438207332325e-103
aF-4.587622418425346e-56
aF-5.688740428056727e-120
aF-5.636452795633071e-58
aF-1.4873525157885971e-133
aF-2.154708318851733e-13
aF-7.229614197468064e-20
aF-1.1207446391883865e-119
aF1.6902530615611993e-95
aF-2.4259301315363245e-20
aF2.863384237419216e-29
aF0.0
aF3.044734629921849e-17
aF-1.301499178466498e-64
aF-0.00018525987962515931
aF1.8868102165092943e-14
aF6.97896844661577e-08
aF4.8430574387612594e-20
aF-1.731640355810262e-21
aF-7.145779533531794e-28
aF-0.045046735505625955
aF-0.0019992751671579676
aF6.545820764858585e-07
aF-0.030791108090260016
aF-2.3348639213508814e-88
aF-3.016516422609306e-08
aF-1.6138229179901437e-27
aF-0.0005746372213131999
aF-0.0011877220864421132
aF-0.022304453683118952
aF7.927678985872523e-21
aF-4.5058754543904546e-08
aF-2.2821847351284862e-38
aF7.990826573286925e-12
aF6.579253857469534e-94
aF0.0
aF-0.001965542966681033
aF1.0359197776582029e-10
aF-2.306936746246582e-25
aF2.3725543674276e-06
aF-0.003916476381717917
aF-1.8925628727474466e-26
aF-0.00323996875445759
aF-1.8935382460441007e-15
aF-0.00020688293768703582
aF3.182779290887466e-11
aF-6.691054992070663e-13
aF-0.005456793978730281
aF-0.023869359535144956
aF-6.0177743616303055e-09
aF0.0
aF-2.557242937825143e-35
aF-0.028485834751817707
aF-1.5186731912661546e-29
aF-3.292922484146159e-130
aF-0.04694314502447552
aF-4.58412900523936e-88
aF-0.0009951527748512687
aF-0.040360177670707785
aF-7.098660937108155e-16
aF-0.02899494065054952
aF0.0
aF-0.0008898431756475084
aF-1.27491813668673e-09
aF-0.07050234542345138
aF6.659816980539068e-11
aF4.741643161690884e-15
aF-1.2135581787044762e-134
aF4.98712611225551e-161
aF-8.759627209782474e-69
aF4.1980844205257425e-166
aF-1.8504365075258453e-11
aF-6.258322269479949e-24
aF-0.0032469992578915423
aF-0.04230783525035622
aF-5.202142619433431e-19
aF8.762832134203124e-96
aF8.593027249141818e-96
aF-2.4223549279257044e-57
aF-0.006383740054641404
aF5.140976486466586e-55
aF-5.726572072919518e-75
aF9.477105666875466e-65
aF-8.234752530134952e-06
aF-0.009343177829637573
aF3.522577600264235e-72
aF4.6862306388854314e-14
aF-2.756531933015812e-12
aF4.10106878811376e-07
aF-4.438717974177742e-09
aF8.335831443750262e-30
aF-0.018750640226307003
aF3.618709221570259e-80
aF-0.013217042071082952
aF-0.014001908305323208
aF8.663744718186041e-06
aF-7.064813444916516e-132
aF7.389613421174377e-58
aF-7.037923769236325e-08
aF-2.0802166553459166e-59
aF-0.029617098976517
aF-5.4836568506487385e-12
aF-0.017143551174761837
aF-0.006593711714519081
aF-7.631247105567865e-06
aF-5.110352138447039e-118
aF-0.038486573777149875
aF0.0
aF-6.380946259884856e-05
aF-0.0011575946596106446
aF2.693106638743807e-11
aF1.3964314717565565e-72
aF-0.004235747845730235
aF-0.028903790691734065
aF0.0
aF-8.311548737975945e-94
aF-3.4326704509829204e-37
aF3.8491056920134557e-107
aF-0.06509987087695585
aF-1.0456649100844559e-07
aF-0.01567093739577641
aF-6.342543036236342e-156
aF-0.0014583112272523089
aF-1.583020843652806e-08
aF8.107286059958837e-84
aF-0.003864379459088766
aF-0.004044044289653419
aF-9.141798934418891e-13
aF-1.2992479248918301e-52
aF-7.722370575619691e-05
aF-5.039512071979109e-35
aF-0.009188619022315481
aF-5.6664135115410404e-15
aF-0.0027294300431295274
aF-0.0001928567798440562
aF-2.1550117117697463e-41
aF1.9684383379936499e-94
aF-1.1248445711903677e-100
aF-1.3612534252612815e-133
aF-2.0089441060534794e-50
aF-0.015330384413610374
aF-0.0024982264118612795
aF-7.229608220752946e-50
aF5.332051079381411e-06
aF-0.012171402520838233
aF-0.0037526803881419253
aF-0.0009826797902133494
aF7.903572076403828e-96
aF-1.0910176161163057e-42
aF-0.0008944072511000421
aF-0.00039813684907550863
aF-0.02027224139933426
aF-0.0009809276002989867
aF-0.025565707647665744
aF1.5179875266516012e-11
aF-0.0172148628821675
aF-5.575223298565764e-13
aF1.943112673207224e-06
aF-7.579534154882731e-06
aF-7.020850994589863e-17
aF-0.03847656443924611
aF-0.014749150626047664
aF-0.005960420137630906
aF-3.3955930118412663e-149
aF-1.584199527502018e-58
aF-0.0047245603682636635
aF-0.04715027383739598
aF-0.0009346329271707283
aF-9.484689601850558e-103
aF-0.0002443982348682876
aF-5.22897426996942e-43
aF-4.370939178968205e-08
aF-8.250107523838344e-53
aF-1.5648140342787513e-43
aF-0.019799673504895456
aF-0.010190077338559306
aF-0.0002904213534865247
aF-4.1435858167434527e-05
aF-0.0004104208741530868
aF1.3419730635127518e-97
aF-0.03655408870547277
aF-0.010948938127929462
aF-0.03928875611213796
aF-0.0027266146698097277
aF-4.5378426011716363e-07
aF-0.0018459193511204705
aF-0.022764238221198323
aF1.2373696763531557e-11
aF-0.0367941326884329
aF-0.0009797136095575946
aF-0.0211946181452368
aF-0.017624213276939818
aF-0.0008735701231465688
aF-0.0011024071753480335
aF-3.674336730843966e-145
aF-1.7242416944466823e-08
aF-0.001967168725985444
aF-6.511447534893437e-05
aF-0.00018686190396383028
aF-0.04083698748457453
aF-0.0002430270110745866
aF-2.725786473196679e-13
aF-0.01311478571208735
aF-0.010998746931372948
aF-0.023569641110785352
aF-0.00011899384768927137
aF-5.581865149824541e-129
aF-7.048766939081993e-05
aF-3.043622284330507e-09
aF-0.017816820375193873
aF-0.020677112286488858
aF-0.02588412629038068
aF-0.017886535464860666
aF-0.0015008227227691713
aF-2.1284815300570522e-83
aF-7.307111618681969e-59
aF-0.0027171843539767907
aF-0.01788725678054925
aF-4.900026974144485e-43
aF-1.2863182463714618e-60
aF-0.015998483373230545
aF1.0201768338372987e-11
aF-0.048978704665927755
aF-0.008100959324161704
aF-0.039258506379348246
aF-0.014976037015427743
aF-0.007424290685015264
aF-0.0122566370418304
aF-0.0015963165096866381
aF2.4775045690799224e-59
aF-0.012414575549850801
aF-5.44055085437236e-07
aF-0.015645350823053277
aF0.0
aF-0.03130490939086049
aF-6.470949440444782e-19
aF-0.011789401880076805
aF-2.3256990467857353e-10
aF-0.007925925054727497
aF-0.001058942123379561
aF-0.04283259723282064
aF-1.2704929434351715e-35
aF3.6884876152678316e-12
aF-0.001391373455020583
aF-0.0001169953235749273
aF2.3441259484279744e-05
aF-0.0008073607421656618
aF-0.004270876342007999
aF-2.7586654839585348e-05
aF-0.0001753159979732632
aF-2.7204659127139972e-15
aF-1.8405086897851012e-12
aF0.00017935579661433767
aF1.9878621641284193e-16
aF-0.039758674335145905
aF-0.00018068339404423564
aF-0.047179936022919915
aF0.0
aF-7.525293360670966e-07
aF-1.3343394427929322e-07
aF-0.0028717670485869265
aF9.410039812975734e-12
aF-0.0030057929465613477
aF-1.464093540014039e-06
aF1.1936203994629597e-06
aF-0.04765686608242392
aF-0.0064500980158895445
aF-0.03575837491127805
aF-3.125971469943007e-06
aF-0.0003330027062429853
aF-0.011725131291743247
aF-9.305601064207469e-25
aF-0.024746304072946246
aF-3.956050518425126e-05
aF-0.008456049173355419
aF-0.000433583913960382
aF-3.9293492133034325e-100
aF-6.086784785593756e-104
aF2.323677296853139e-59
aF-7.083942211689151e-59
aF-0.038879870910021
aF-0.010344895520912613
aF-0.016683854873666304
aF-0.0005300761748679236
aF-2.5952372124519516e-66
aF-0.007347957888681864
aF-0.029619586427229574
aF-0.051157572987743156
aF-0.002499432853432303
aF-2.6327843499132856e-06
aF-0.0176551921300763
aF-5.555960723836301e-50
aF-0.04750982908962115
aF-2.761762784987085e-29
aF-0.039799394311924405
aF-0.0018567593653283567
aF-0.016159059444013617
aF2.3309109479941176e-16
aF1.2646279187429986e-05
aF-0.041164010524982815
aF-0.014610267533488873
aF9.442558060938816e-132
aF9.293255271721549e-71
aF-2.0934441373566606e-104
aF-2.89875813781325e-31
aF-0.017083900667522006
aF-0.0014959908533934663
aF0.0
aF-0.0007193011401843131
aF-0.026506766679722803
aF1.0778738198584155e-05
aF3.094824187085837e-166
aF-0.0060623842244634145
aF-2.2164910707698743e-15
aF1.3157762574821453e-14
aF-0.0073262290955284
aF2.0176351739041395e-20
aF-3.581624476171815e-05
aF-1.4277158720988173e-35
aF-0.039622626267714976
aF-0.01356230789986489
aF-0.011858517507928108
aF-0.0075344540409505055
aF-0.00017553828810236487
aF-0.008002474629323348
aF-1.3277444815635192e-05
aF-0.00016668358444613896
aF-2.751037878958556e-60
aF-0.04129825333404003
aF-0.0027027123117331154
aF-0.0061156099951877995
aF-0.025603857117217084
aF-0.0025655679170870876
aF-6.071686470576942e-20
aF-5.655794066453679e-09
aF-0.003632317627560231
aF-0.007289736496368236
aF6.3862420320610304e-65
aF-0.019131224327054386
aF1.6993135546676367e-06
aF-1.8664631519010122e-28
aF-8.856573300380204e-06
aF-1.423983316366614e-13
aF-0.04041543989060095
aF-0.009601150124706847
aF-3.586771471721039e-07
aF1.6127862529175927e-13
aF-0.013709172233301446
aF-5.212042079711335e-07
aF-0.019785814196386944
aF-1.1848275814285502e-23
aF-0.0009639761517992995
aF-5.728767411582842e-05
aF-1.76334020290838e-26
aF-3.4277983428715924e-06
aF-0.0041663141427831
aF-0.03999346709741317
aF2.0851910169064724e-05
aF-1.607479333053874e-05
aF-0.00024933510405730514
aF-1.308933113973842e-35
aF-0.005049540108432085
aF7.584014598282967e-14
aF-0.004777679031498302
aF1.49492076230629e-13
aF-1.0353329928903987e-21
aF-3.5133381597032176e-25
aF6.753149064985917e-12
aF-0.006214636827661297
aF-0.012834447582142118
aF-0.03252422079003185
aF1.3326551158700985e-54
aF-8.652321883001052e-07
aF-0.0035111052031506743
aF-2.6160103614741533e-05
aF-3.7237466011695395e-05
aF-0.02135904904928851
aF-2.518321239041361e-05
aF-0.009465947139730348
aF-0.00685945292579844
aF-0.00953309284053433
aF-3.936456546711932e-05
aF-0.004148482479841407
aF-0.008398132150093933
aF-7.970695670634227e-06
aF-0.05281148616469927
aF-0.02903948245981399
aF-1.2276988430210464e-35
aF-0.002951692487175879
aF-0.04389084970510294
aF-0.02042657794018932
aF-0.0003304598918249424
aF1.2423856072137395e-09
aF-0.01652200814960253
aF-0.00018097915104512145
aF-3.919581529687323e-05
aF-0.013548611100299666
aF-1.9379961761260843e-05
aF1.2221509481017712e-42
aF-3.744638287924947e-12
aF-0.016030646308953213
aF-0.0016702815448243
aF-0.03512067299902039
aF-0.03589744135136734
aF-1.3353950253364006e-68
aF-7.153158805497156e-09
aF-6.320297853149347e-05
aF-4.968588171744373e-30
aF-0.00011398625358137827
aF-3.959116681974939e-11
aF-5.3161989211904814e-05
aF-4.387332507162473e-30
aF-0.00020719302865401595
aF1.335224362565865e-137
aF-0.020375482618405966
aF-5.3535978861020026e-05
aF-0.0350535855191359
aF-0.00022034894139464584
aF-0.010187054521339788
aF-0.010885060039869117
aF-0.00437213031638599
aF-0.007023798385968527
aF-2.5087172375982354e-27
aF-0.0457821334104463
aF-0.006096203411512505
aF-5.442816603628972e-73
aF-0.015262419332724503
aF-0.0015768273773678694
aF-0.0203300873786353
aF-5.030015355715771e-05
aF-0.00022390496783195236
aF-0.010259823329411092
aF-0.02028646469337617
aF-1.0115294371678447e-05
aF-4.613902973144247e-21
aF-0.0025381896235955265
aF5.414505846329018e-12
aF-0.0009414472186459024
aF-4.90988393402759e-20
aF-9.838229311952903e-08
aF-0.03734905296110908
aF-4.7693298571467325e-20
aF-0.012524357807124846
aF-4.635953066752637e-20
aF-0.013119707619930992
aF-1.1689361238915815e-20
aF-2.3890895198958534e-05
aF-0.004322534017265562
aF-0.027909774815124612
aF-2.494951510640775e-29
aF-4.5093833693650936e-20
aF-0.002480577195925298
aF-1.0307043586677808e-139
aF-0.01657170259014997
aF-7.17677102202603e-11
aF-0.002474690946068015
aF9.625501972290196e-06
aF-0.009271663087859707
aF-9.774070349805166e-44
aF-0.0007584977612042133
aF-0.005193654694556161
aF-0.03486304683095503
aF-1.738797564474911e-77
aF-0.015526674029745953
aF-3.625492873012927e-05
aF-0.011725487515359068
aF-5.932694584786659e-24
aF-0.005608448252034242
aF-1.2236932508896285e-55
aF-3.9049746983913755e-05
aF-0.012369564383195086
aF-0.002502632678105759
aF-1.3234837003381035e-43
aF1.9018663550361152e-05
aF-1.6428700855065139e-25
aF-1.78667682111353e-05
aF-0.0008634932988897262
aF-0.0060776699816620415
aF-1.0084941207092388e-88
aF-4.38637849182382e-20
aF-0.038414862036186874
aF2.694631457090703e-06
aF-0.025296808579219822
aF-5.108199341022773e-50
aF1.0949222673484829e-69
aF-0.00020046870965615595
aF-5.793403248686263e-20
aF-1.5182847930346006e-37
aF-4.240789353980908e-20
aF-0.012638987277358057
aF-7.029136372575533e-28
aF-1.8558168670425638e-20
aF4.433001505680851e-21
aF1.7336681563986326e-92
aF5.328220669276424e-06
aF-0.0038709556980284377
aF-3.9052676677926167e-100
aF-0.018829295761396588
aF-1.3589067403456656e-06
aF-0.04357987178750547
aF-0.004348634950523013
aF5.545562788807527e-16
aF-0.01533490569674364
aF-1.3224113207521166e-21
aF-3.94469087396104e-20
aF-3.8516158656130145e-20
asb.