ccopy_reg
_reconstructor
p0
(clrsgd
LogisticRegressionSGD
p1
c__builtin__
object
p2
Ntp3
Rp4
(dp5
Veta
p6
F0.3
sVmu
p7
F0.7
sVweight
p8
(lp9
F-2.8516785841384703e-209
aF0.0
aF8.251835375889039e-218
aF-5e-324
aF-5e-324
aF-0.007283522982578723
aF-1.4841223728004237e-45
aF-0.019573963109726922
aF-1.3606219304950083e-265
aF5e-324
aF-1.9443064717835105e-233
aF-7.126852395051997e-243
aF-7.977339920327697e-85
aF-5e-324
aF1.523342547198532e-252
aF-1.1323864716358096e-245
aF-1.9053631485115694e-100
aF-5e-324
aF-6.219798067599561e-278
aF1.2978913863783829e-166
aF-1.121669051277524e-25
aF-5e-324
aF-5e-324
aF-1.559306671491928e-270
aF-5e-324
aF5e-324
aF5e-324
aF1.2978913863783829e-166
aF-5e-324
aF2.0985591020475417e-39
aF1.0726229733997586e-95
aF-1.18299068285e-313
aF-7.004219174244392e-33
aF-1.5732934769512803e-16
aF-1.5399537405014798e-173
aF1.6737290752559386e-76
aF0.0
aF0.0
aF-1.503927815386373e-42
aF-2.0315524965228118e-172
aF-5e-324
aF-2.6900368999726442e-117
aF-1.121669051277524e-25
aF-9.656083729297294e-82
aF5e-324
aF-3.8153389559881284e-154
aF-1.8012038591781473e-16
aF-1.066099689181041e-289
aF-1.1239646674426391e-171
aF3.9511140663963435e-44
aF-1.4841223728004237e-45
aF-5e-324
aF-1.0686696462401687e-42
aF-3.0051849423656586e-174
aF5.589318662257162e-104
aF-2.4720833901596378e-195
aF-0.005458191893241385
aF-4.95507510935511e-19
aF5e-324
aF1.4997068586956234e-19
aF-0.0005233391754424395
aF4.433562463857755e-177
aF-6.478981393404215e-44
aF-4.76054929397755e-80
aF-9.3773236289235e-311
aF-5e-324
aF-1.6951116164718953e-121
aF0.0
aF3.4150060434495485e-56
aF2.2785745669397627e-88
aF-3.9846380455268274e-14
aF-1.503927815386373e-42
aF-5e-324
aF-2.1603900753730846e-12
aF5e-324
aF-0.0005233391754424395
aF-6.9374251136373415e-84
aF2.357771615784094e-15
aF-5e-324
aF5e-324
aF0.0
aF-2.3806791119599605e-159
aF-3.2394906967021075e-44
aF-5e-324
aF-7.977339920327697e-85
aF-1.2993826422873117e-66
aF-8.042839656018294e-06
aF-5.742407087454304e-307
aF0.0
aF-5e-324
aF-8.685668346400672e-12
aF-5e-324
aF0.0
aF-8.882249401142417e-112
aF-0.00011920863894739163
aF-5e-324
aF-5.167366088500302e-73
aF0.0
aF-0.0010069390375880179
aF-4.5994192703798244e-198
aF-5e-324
aF-5e-324
aF-8.459440046630401e-78
aF0.0
aF-1.4291094885934484e-124
aF-4.729028050922279e-178
aF-0.0061633921165379375
aF-5e-324
aF-2.9452657298014607e-77
aF-5e-324
aF-1.2496509207609553e-39
aF-1.2460024431823485e-92
aF-7.508005732346078e-36
aF-1.158087954764309e-11
aF0.0
aF0.0
aF-0.0018274191514019813
aF-2.1062747117036406e-52
aF-6.041359195201141e-162
aF5.714397496315034e-78
aF-1.619491717706484e-125
aF-7.004219174244392e-33
aF-7.386295090961451e-11
aF0.0
aF-3.216231068368063e-207
aF-5e-324
aF-2.6900368999726442e-117
aF-5e-324
aF2.172287185434033e-108
aF5e-324
aF-7.977339920327697e-85
aF-5e-324
aF1.4368320445932232e-27
aF-5e-324
aF-5e-324
aF4.3640711931058816e-15
aF8.251835375889039e-218
aF0.0
aF-5e-324
aF-2.7325487533987464e-191
aF-2.620832108322568e-54
aF-1.1433129695973955e-08
aF-1.0051633063515124e-85
aF4.710242948086259e-204
aF-5e-324
aF-1.3322211133161767e-119
aF-5e-324
aF-1.4728376429847675e-14
aF2.172287185434033e-108
aF-1.6915458590696566e-187
aF-5.1152597364357557e-284
aF0.0
aF1.0395404305811053e-28
aF-5.545513117747356e-135
aF-1.6278695854921514e-28
aF-1.121669051277524e-25
aF5.178848831453515e-29
aF0.0
aF-6.478981393404215e-44
aF-5.399483088298831e-126
aF5e-324
aF-8.20392512119386e-11
aF-0.005462645846782203
aF3.057826077378053e-95
aF-4.3480724415573547e-10
aF-9.411526803015428e-26
aF-1.9275574399052573e-65
aF-5e-324
aF-1.9053631485115694e-100
aF-5.322047356700307e-157
aF-1.7094445854285493e-165
aF-0.03185595840383407
aF-3.2241014523627766e-157
aF-5e-324
aF-1.503927815386373e-42
aF3.4150060434495485e-56
aF-5e-324
aF-3.111580231968878e-06
aF-4.004459972075837e-157
aF-5e-324
aF-1.3367905129586102e-113
aF-2.4720833901596378e-195
aF5e-324
aF-2.095764266569184e-05
aF-4.768345557895665e-05
aF-1.706357452603635e-196
aF-5.42392671396627e-113
aF-3.7172274249402385e-207
aF-2.3336868451912666e-06
aF-5e-324
aF-2.1967651532535667e-21
aF-0.07832142237923442
aF-5e-324
aF-0.010916394998024034
aF-5e-324
aF-0.0061633587033683174
aF-1.9873403064699263e-30
aF5e-324
aF-1.3101929729682623e-06
aF-2.0405513796137458e-241
aF-3.22411816313691e-229
aF-5.43835909391333e-148
aF-1.7370109115657523e-11
aF-1.2593174723407816e-211
aF-5e-324
aF-5e-324
aF-2.283965069380212e-141
aF-5e-324
aF-5e-324
aF-3.1424282109256595e-39
aF-5e-324
aF-5e-324
aF-5e-324
aF-2.8329506131510047e-134
aF4.7847832059865415e-50
aF5e-324
aF-5e-324
aF-4.74494905274227e-222
aF-0.0061633587033683174
aF-1.982649128034749e-31
aF-3.5167052199582562e-96
aF-5.143709123368274e-196
aF-5e-324
aF-1.6259193230095583e-35
aF-5e-324
aF-5e-324
aF-2.107574473047615e-32
aF-0.010916383564893706
aF-3.5585081803616795e-09
aF-3.0146929933864015e-271
aF-1.0030610080170181e-143
aF-1.4779419890861413e-85
aF0.0
aF0.0
aF5e-324
aF-5e-324
aF-8.079311321516921e-160
aF-1.9005220325934623e-210
aF-5e-324
aF-0.0008180198014314421
aF-0.021850583383764766
aF-5e-324
aF-3.309640931075131e-16
aF1.0376929188584755e-103
aF-5e-324
aF5e-324
aF-0.024871414949377536
aF0.0
aF-3.474267338560269e-11
aF-5e-324
aF-5e-324
aF-5e-324
aF1.317036705094094e-44
aF-5e-324
aF-6.14430373935e-312
aF5e-324
aF-1.1323864716358096e-245
aF-5.528900933250664e-60
aF-6.679424046909547e-230
aF-2.558592941174929e-142
aF-1.2198446054367767e-57
aF-5e-324
aF-3.694095957620655e-141
aF-5e-324
aF-7.602997912659751e-25
aF-9.91601562671225e-30
aF-1.4520485425270815e-10
aF1.0376929188584755e-103
aF-5e-324
aF-1.2198446054367767e-57
aF1.069723276351003e-11
aF-5e-324
aF-5e-324
aF-2.2158906741567753e-10
aF-1.8627729734926263e-174
aF-3.5814721334146475e-57
aF0.0
aF-5.78689586335389e-245
aF-3.919998943286048e-97
aF-5e-324
aF0.0
aF-3.4041286872760134e-21
aF-4.2151489462456257e-32
aF0.0
aF3.9511140663963435e-44
aF-5e-324
aF-2.1753595829058714e-26
aF-6.095861607607483e-18
aF2.172287185434033e-108
aF5e-324
aF0.0
aF3.984200864867908e-185
aF5e-324
aF-1.6951116164718953e-121
aF-5e-324
aF-9.785658306507532e-188
aF-5e-324
aF-2.460298795814912e-80
aF-4.437528652534719e-248
aF-3.919998943286048e-97
aF-5.54676090681965e-51
aF0.0
aF-5.934761504129253e-184
aF-3.5814721334146475e-57
aF5e-324
aF-5e-324
aF-0.01092529169188247
aF-5e-324
aF0.0
aF5e-324
aF1.125650264848462e-122
aF-1.8586137183761447e-207
aF-1.803584143463604e-73
aF-5e-324
aF-9.913245640173745e-32
aF-2.0376725446924684e-06
aF-1.4723743671083575e-138
aF-0.0072835227356406055
aF-4.563402330172035e-151
aF0.0
aF-4.181084996437484e-18
aF-1.1915263711846771e-167
aF-2.47612750275795e-309
aF-5e-324
aF-6.041359195201141e-162
aF-4.3480724415573547e-10
aF-2.6007523163339526e-120
aF-1.7772230810618488e-138
aF-5e-324
aF-3.3413129773690986e-08
aF0.0
aF-6.095861607607483e-18
aF-5e-324
aF-4.563402330172035e-151
aF-2.1748600158799616e-216
aF-0.05007759603178916
aF-5e-324
aF-3.919998943286048e-97
aF-1.168348352347e-312
aF-1.1112609653747978e-207
aF-7.1180998296120185e-208
aF-5e-324
aF0.0
aF5e-324
aF-1.6571274277347193e-59
aF-5.43835909391333e-148
aF-4.212870979838428e-84
aF-1.0983825766267833e-21
aF-0.0030208201335840124
aF-1.6706564886845493e-08
aF-2.2158906741567753e-10
aF-1.6723933768384006e-08
aF-5e-324
aF0.0
aF-5e-324
aF-2.3297697320034815e-238
aF-4.95507510935511e-19
aF-5.476859759474461e-228
aF-5e-324
aF-8.079311321516921e-160
aF-3.4884482265671644e-149
aF1.0395404305811053e-28
aF-4.3735570390556134e-133
aF-1.1274696837261306e-228
aF-5e-324
aF0.0
aF-3.656837577562936e-110
aF-0.0054581917770982384
aF5e-324
aF0.0
aF-4.1019310168395045e-11
aF1.1015579233028217e-12
aF-3.9744288462614675e-238
aF-9.063174942430784e-117
aF-1.8627729734926263e-174
aF-1.4520650907317364e-10
aF-8.759394610734675e-139
aF-4.166002960224737e-168
aF-5e-324
aF-3.299375016159249e-162
aF-5e-324
aF-5e-324
aF1.6737290752559386e-76
aF-4.563402330172035e-151
aF-5e-324
aF-2.661923118084527e-86
aF-0.003182329469411872
aF-1.235664713575439e-233
aF0.0
aF-5e-324
aF-2.774814785130315e-266
aF-5e-324
aF-1.2198446054367767e-57
aF0.0
aF-3.5920745137607505e-17
aF-5.859786417237718e-14
aF-5e-324
aF-3.5570811899113264e-48
aF-5e-324
aF-1.084496332837871e-16
aF-4.563402330172035e-151
aF-2.774814785130315e-266
aF-5e-324
aF2.78863373846506e-175
aF-6.475205322895572e-66
aF2.8807006849460245e-288
aF-5e-324
aF-1.945450762342403e-13
aF0.0
aF0.0
aF5e-324
aF-4.154201356341752e-102
aF-5e-324
aF-2.7394342586123883e-279
aF-6.095861607607483e-18
aF-4.21514894609523e-32
aF-1.9053631485115694e-100
aF5.468451543214523e-121
aF-0.0813422311144291
aF-2.1772581681917697e-123
aF2.172287185434033e-108
aF-1.1274696837261306e-228
aF-5e-324
aF4.620778697991128e-173
aF7.28787724105434e-115
aF0.0
aF5e-324
aF-7.956712740527199e-07
aF-6.365033218294283e-05
aF-0.005693241729506644
aF-1.3367905129586102e-113
aF-5e-324
aF-5e-324
aF-3.683157107868244e-26
aF-5e-324
aF-7.290964187892651e-111
aF-4.634160909618744e-270
aF1.0726229733997586e-95
aF-0.010916383564893706
aF-5.239119022252913e-271
aF9.62269039848879e-73
aF-5e-324
aF-5e-324
aF-2.764450466625332e-60
aF-3.3368934794632452e-09
aF-2.558592941174929e-142
aF5.284257488537498e-20
aF-1.945450762342403e-13
aF-8.171543669260327e-165
aF-0.003638790882836713
aF-2.8676526416264674e-289
aF-5e-324
aF1.2904923684990507e-15
aF-6.67374711497034e-09
aF-7.10993517596388e-309
aF-5.239119022252913e-271
aF-5.399483088298831e-126
aF-3.4742673716082236e-11
aF5e-324
aF8.073667874466447e-117
aF-2.1968086604452656e-22
aF5.747790579269427e-166
aF2.6862874035251568e-163
aF3.9883211124486684e-20
aF9.62269039848879e-73
aF-2.2158906741567753e-10
aF-2.46287e-319
aF-6.449805661956825e-36
aF-8.204791331128562e-301
aF0.0
aF-2.0201694778498727e-184
aF-1.6563744968483924e-275
aF-1.1347637800782301e-144
aF0.0
aF-5e-324
aF-6.434336207427705e-36
aF-1.3367905129586102e-113
aF-8.759394610734675e-139
aF2.1397115105625212e-290
aF-5e-324
aF0.0
aF-4.067847373230847e-274
aF-1.4149948199766085e-186
aF-1.474820728163067e-274
aF-2.4443581430718307e-14
aF5e-324
aF7.89482606902204e-54
aF-2.283965069380212e-141
aF-1.7097689097732983e-256
aF-3.2616999537530683e-91
aF-5e-324
aF-8.096200945304765e-72
aF-3.4041286872760134e-21
aF-1.165655530353488e-272
aF0.0
aF-5e-324
aF-3.822620512819187e-09
aF-6.67374711497034e-09
aF-4.563402330172035e-151
aF-1.2049215248490313e-189
aF-0.07832141094610243
aF-1.1926593612272054e-237
aF-1.1652698723445745e-11
aF1.768695544771938e-24
aF-1.2198446054367767e-57
aF-2.3161793837959585e-11
aF-3.5814721334146475e-57
aF-1.2451994166868349e-14
aF-3.695230721400736e-141
aF-2.46287e-319
aF3.500554207036308e-118
aF-1.1433130326849105e-08
aF-5e-324
aF-5e-324
aF-6.810280079622262e-141
aF-1.2093845529519013e-242
aF-5e-324
aF-5.399483088298831e-126
aF-2.558592941174929e-142
aF-3.5570811899113264e-48
aF-1.5244384960992268e-139
aF-3.0744109913377983e-25
aF-0.0030840140121693076
aF-0.0163834891908944
aF-7.348214143258666e-32
aF-0.021850583383764766
aF-1.5732934769519562e-16
aF-3.694095957620655e-141
aF-1.022825378663478e-42
aF-2.558592941174929e-142
aF-5e-324
aF-5e-324
aF-5e-324
aF5.589318662257162e-104
aF-3.2610538135828333e-06
aF-8.20392512119386e-11
aF3.1543757423321364e-16
aF1.4256178511804414e-71
aF-2.072518890711342e-242
aF-1.7583526103450559e-96
aF3.203033874479422e-245
aF-2.07965128986958e-105
aF-5.035496472493993e-187
aF0.0
aF-5e-324
aF-5e-324
aF7.772429915109881e-23
aF0.0
aF-3.958858302913767e-260
aF-7.302945616631837e-190
aF-5.711216547042796e-09
aF-3.3639657139094182e-12
aF0.0
aF0.0
aF-3.832217317704277e-58
aF-1.1079453370783877e-10
aF-1.503927815386373e-42
aF-5e-324
aF-2.3539701806505672e-256
aF-7.348214143258666e-32
aF-5e-324
aF-3.2872394066397875e-197
aF6.30875143288471e-16
aF-0.0036524401556597653
aF-2.4450923709866205e-120
aF-0.017080661132164887
aF-1.2943883676830592e-33
aF-2.04e-321
aF-4.866541047452623e-81
aF-0.01652195601980585
aF-4.531587471215392e-117
aF-3.701399742046218e-233
aF1.5138284672267147e-23
aF-5e-324
aF-5.399483088298831e-126
aF-5.380669931176753e-07
aF-2.543455215791093e-199
aF0.0
aF-9.916015626712298e-30
aF-8.505586485348969e-99
aF-2.1967651532535667e-21
aF0.0
aF-4.7845270975541e-310
aF0.0
aF-1.9873403064699263e-30
aF-1.503927815386373e-42
aF-1.1544217895554365e-241
aF-2.6183903667846263e-269
aF-5e-324
aF-0.0003194355987927717
aF6.202500137783702e-247
aF-5e-324
aF-5e-324
aF-0.0030208201335840063
aF-0.0015104100667920933
aF-5.538777837630571e-218
aF-0.0010069390375879587
aF-0.013539191800689658
aF-5e-324
aF-5e-324
aF-5e-324
aF-5e-324
aF-5e-324
aF-6.219798067599561e-278
aF-2.615258505436023e-31
aF-9.010111618034135e-39
aF-1.4728376429847675e-14
aF-0.025042998637864064
aF-5e-324
aF3.4128786102967767e-34
aF-4.421503950597076e-283
aF-5e-324
aF-1.4728376428078983e-14
aF3.5657406887641385e-12
aF3.3397341581363104e-12
aF-5e-324
aF-1.0957443180367262e-30
aF-1.405413521362532e-05
aF-7.218582333379725e-93
aF-5e-324
aF-5e-324
aF2.226276700529982e-40
aF-5e-324
aF1.0196061632249596e-86
aF-1.3982876489421044e-49
aF-1.503927815386373e-42
aF-0.0057342175317639955
aF-5.774676392666608e-197
aF-1.286867241485541e-35
aF-0.00018334963827991926
aF-5e-324
aF-3.978271235832558e-07
aF-0.0030208201335840063
aF2.743893595589152e-103
aF-5e-324
aF-5e-324
aF5e-324
aF5.177957046252227e-24
aF5e-324
aF-2.2179177402789205e-203
aF-5e-324
aF3.0227764812438316e-196
aF4.766865945354929e-138
aF-4.437528652534719e-248
aF3.8035075244617854e-270
aF-0.05600300902000516
aF2.226276700529982e-40
aF8.251835375889039e-218
aF1.1015579233028217e-12
aF-5e-324
aF-4.191528533138368e-05
aF-5e-324
aF2.128055676096189e-93
aF-4.458231558430803e-23
aF9.871371474806135e-57
aF-2.153763184437195e-92
aF-3.9938998371669955e-25
aF-0.0030208201356327355
aF5e-324
aF-2.8329506131510047e-134
aF-2.034705198828273e-12
aF-4.667367980301186e-06
aF3.227445842468764e-231
aF-5e-324
aF-3.543361477577303e-281
aF-7.707437942424595e-143
aF-1.6918880093260801e-77
aF-2.090542498218742e-18
aF-4.9550781837661115e-19
aF-2.0153717712333588e-43
aF5e-324
aF5e-324
aF5e-324
aF-0.0010069989421230747
aF-4.7845270975541e-310
aF3.9883211124486684e-20
aF-1.2345944258777206e-136
aF-9.01792071731802e-74
aF-5e-324
aF7.77242990268462e-23
aF0.0
aF3.123347494568388e-236
aF-2.3629546444112175e-169
aF-5e-324
aF-5e-324
aF-5e-324
aF5.177957046252227e-24
aF-3.3036611535299625e-210
aF-3.5411199024659055e-13
aF-4.5994192703798244e-198
aF0.0
aF0.0
aF3.4128786102967767e-34
aF-1.0212396274224327e-20
aF-2.8550406807571778e-12
aF5.3093223113137475e-25
aF-0.00918417898215718
aF-1.6242519783895826e-232
aF-8.042839656018294e-06
aF-8.042839656018294e-06
aF-5e-324
aF-5e-324
aF-0.0003194355982419929
aF-5e-324
aF5e-324
aF-1.1274696837261306e-228
aF-2.6900368999726442e-117
aF-3.4440268750579393e-87
aF2.250617831182988e-22
aF4.027686334238602e-119
aF-9.616250543734338e-25
aF-1.573293476951799e-16
aF-7.602997886771982e-25
aF-1.5026788054970762e-58
aF-3.3646993972125337e-219
aF-8.204791331128562e-301
aF-5e-324
aF-9.91601562671225e-30
aF-5.528900933250664e-60
aF-5.951677966591081e-30
aF5e-324
aF-4.507128322894357e-239
aF5e-324
aF-1.1030279302093129e-100
aF-2.3689989617938667e-11
aF2.3906492102990005e-84
aF2.0054136454064052e-20
aF-2.6903349655883766e-07
aF3.3457802224192964e-218
aF-4.371370713296261e-129
aF-1.0245627280040342e-223
aF-2.676241003580161e-226
aF-1.3792615554235393e-150
aF-4.602642496476452e-85
aF-5e-324
aF-6.950445069356812e-05
aF-1.631416613107967e-99
aF-2.1062747117036406e-52
aF6.818318290967631e-13
aF1.7060459777508892e-253
aF-1.9923190227645007e-14
aF-0.004009068435658538
aF-4.1588731721833475e-115
aF-4.76054929397755e-80
aF7.772429915109881e-23
aF-0.00020690199678424957
aF-0.035090198987478845
aF-5e-324
aF-5e-324
aF0.0
aF-3.224101452243629e-157
aF-5e-324
aF-2.687926100842679e-19
aF-1.0228364473383213e-42
aF-4.181084996437484e-18
aF-2.3188048039386227e-229
aF-5e-324
aF-5e-324
aF-3.4884482265671644e-149
aF3.7092488055066417e-41
aF-0.0012493291844332683
aF-3.972662591051031e-99
aF3.4150060434495485e-56
aF-1.0137121031816554e-271
aF-1.4055423545242777e-168
aF-8.552472753379622e-156
aF-5.012007117120629e-91
aF-5e-324
aF-5e-324
aF6.443246315629038e-52
aF5e-324
aF-2.4218568598256488e-204
aF-2.0153717712333588e-43
aF5e-324
aF-3.13554109829037e-258
aF-8.126278995415109e-55
aF-1.0125797480508449e-08
aF-2.444498289528703e-05
aF-6.478981393404215e-44
aF-5e-324
aF-5.581957306883423e-47
aF-2.6903349655883766e-07
aF-0.002013881095996109
aF-2.1373392924803373e-42
aF-1.4108530762983163e-41
aF0.0
aF3.4091591454876844e-13
aF-8.247495073232227e-28
aF-5e-324
aF-3.699494297738335e-10
aF-1.4359932107609677e-05
aF-5e-324
aF-3.3968175543134255e-14
aF-1.40548757943167e-05
aF-0.001208328053297236
aF-3.630032944180467e-211
aF-1.6966485586200615e-77
aF1.974274294961227e-56
aF-5e-324
aF5e-324
aF-6.198187272039429e-48
aF-3.694095957620655e-141
aF0.0
aF-5e-324
aF-5e-324
aF4.027686334238602e-119
aF-1.3160213745374965e-251
aF-5e-324
aF-3.3639657138316948e-12
aF5.507789616514108e-13
aF-3.694095957620655e-141
aF-5.399483088298831e-126
aF-5e-324
aF-1.090275196586563e-118
aF-3.543361477577303e-281
aF-0.001510679100288562
aF-8.139347927355825e-29
aF-6.233486454340955e-10
aF-0.0030804244530577038
aF-3.474267338564729e-11
aF-6.193855273529794e-20
aF-1.5260215701879443e-151
aF-5e-324
aF0.0
aF2.2727704908856925e-13
aF-4.958007813356125e-30
aF-5e-324
aF6.380361889576415e-17
aF-5e-324
aF-3.999206242176447e-06
aF-4.667367980301186e-06
aF-6.042860079698644e-96
aF-5e-324
aF-5e-324
aF-7.508005667556258e-36
aF-5e-324
aF-1.503927815386373e-42
aF-1.1274696837261306e-228
aF-2.8329506131510047e-134
aF-3.466739346015571e-215
aF-4.2204834133283674e-13
aF-3.5920970199391174e-17
aF-4.298291251587722e-80
aF-5.710081348688799e-12
aF9.62269039848879e-73
aF0.0
aF-8.436929846856316e-42
aF-1.6948994830327936e-12
aF0.0
aF1.0395404305811053e-28
aF6.380361889576415e-17
aF-8.459664289957777e-79
aF-3.7706642903835944e-31
aF-5.691957752374783e-185
aF-2.2158906741567753e-10
aF-5.012007117120629e-91
aF-0.03642621369815932
aF-5.934761504129253e-184
aF-5e-324
aF-3.9938998371669955e-25
aF-0.016897165822771676
aF-7.348214143258666e-32
aF-5.1141822366916065e-43
aF-1.4032177443759024e-300
aF-1.2874746347459222e-26
aF-0.03145655432523884
aF-0.001007118808639755
aF-1.9287809562032107e-285
aF-3.349193286835931e-265
aF5e-324
aF-1.9826491278180137e-31
aF-2.0088822236187044e-12
aF-1.1938485910525714e-77
aF-0.04513338884245913
aF-1.174067590431607e-96
aF5.468451543214523e-121
aF4.742291263273766e-103
aF0.0
aF-2.225085623179258e-132
aF-3.5920970199391174e-17
aF-1.5913087287244813e-06
aF-0.0030208201335840063
aF-3.56e-322
aF-5e-324
aF0.0
aF1.0002434844317184e-59
aF-0.003081679351717083
aF-0.048565014442954704
aF-2.5925312785686446e-64
aF-1.470404e-318
aF5e-324
aF-8.247493879746908e-28
aF3.022547832318165e-19
aF-0.0030208418097797595
aF-1.9443064717835105e-233
aF-0.005458344680859871
aF-3.1579466563277623e-21
aF-5.581964555615691e-47
aF0.0
aF-5.60834525638762e-26
aF-5.801183051705933e-65
aF-5e-324
aF-5e-324
aF-1.168348352347e-312
aF-5e-324
aF-1.5464521870487047e-63
aF-5e-324
aF-1.6242519783895826e-232
aF-5e-324
aF-6.29898596680972e-194
aF-5e-324
aF-2.1748600158799616e-216
aF-5e-324
aF-1.46677669210501e-36
aF-1.4728376429847675e-14
aF-1.2093845529519013e-242
aF5e-324
aF-5e-324
aF0.0
aF-8.645343050518763e-187
aF-2.203130379303742e-194
aF-1.0876797914529357e-26
aF-5e-324
aF-5e-324
aF-6.487944756492785e-255
aF-1.672957863394513e-130
aF-1.7283120602984677e-11
aF-4.421503950597076e-283
aF-5e-324
aF5e-324
aF-3.9293760584187613e-66
aF2.172287185434033e-108
aF0.0
aF-5e-324
aF-5e-324
aF3.057826077378053e-95
aF-0.00011920863784583374
aF0.0
aF3.057826077378053e-95
aF-5e-324
aF2.250617836414124e-22
aF-1.4197542349672e-40
aF0.0
aF-6.9374251136373415e-84
aF-0.0018274191514019813
aF-2.380274646988775e-80
aF-5e-324
aF-2.7025439770114827e-214
aF-0.0010759067272967907
aF-2.037672551333544e-06
aF7.314785446322704e-13
aF-0.0005435096824314746
aF5e-324
aF0.0
aF2.981072811619024e-138
aF-5e-324
aF-8.042839656018294e-06
aF0.0
aF3.057826077378053e-95
aF-1.613075302349239e-81
aF0.0
aF5e-324
aF1.523342547198532e-252
aF-5e-324
aF5e-324
aF-5e-324
aF-5e-324
aF-5e-324
aF-9.318155865386524e-170
aF-0.00020690273736494096
aF-5e-324
aF-3.587131448106621e-05
aF-4.181084996437484e-18
aF-2.095764266569184e-05
aF1.8921441711985542e-69
aF-5e-324
aF-2.1753595829058714e-26
aF-2.2853856384586493e-53
aF-5e-324
aF-1.3322211133161767e-119
aF-5e-324
aF-3.149732013777125e-170
aF0.0
aF-0.001827422709910162
aF-5e-324
aF4.258933619747059e-124
aF-0.001086100355763957
aF-5e-324
aF0.0
aF-1.4197542349672e-40
aF-7.069768228452256e-203
aF-2.8507594233190453e-44
aF-2.7524059695443407e-94
aF-4.137076694834593e-16
aF3.155125510563387e-69
aF-5e-324
aF-1.0629328653988433e-166
aF-2.4452168346637797e-06
aF-4.212870979838428e-84
aF-5e-324
aF-4.371370713296261e-129
aF-5e-324
aF5e-324
aF-5e-324
aF2.524139433691771e-49
aF0.0
aF5e-324
aF-2.2229221793188474e-06
aF-4.95507510935511e-19
aF-7.106304081735869e-159
aF-6.487944756492785e-255
aF-2.8938758550650297e-08
aF1.932130666427941e-34
aF-1.2993826422873117e-66
aF-4.0426022013114873e-128
aF-1.907317046172614e-47
aF-5e-324
aF-6.896726329408425e-05
aF-1.1013962132096254e-91
aF-8.766557246808573e-06
aF-2.596325560258539e-283
aF-6.042860079698644e-96
aF-0.04956591762869915
aF-5e-324
aF1.3009655203616422e-224
aF-1.5913084943330233e-06
aF3.4150060434495485e-56
aF3.155125343190486e-69
aF-0.011244744973637763
aF-3.902977910764409e-273
aF6.380361889576415e-17
aF-1.5282605215614368e-06
aF-2.5800068617069418e-23
aF-5e-324
aF-0.07284526075543472
aF-3.1197608159314945e-73
aF0.0
aF0.0
aF-1.0044411118093522e-12
aF-1.6951116164718953e-121
aF1.6737290752559386e-76
aF-9.232790186704451e-109
aF-5e-324
aF0.0
aF-3.2616999537530683e-91
aF-7.302945616631837e-190
aF-3.587131448106003e-05
aF-1.46677669210501e-36
aF-5e-324
aF-1.9443064717835105e-233
aF-5e-324
aF-1.348166371552375e-128
aF-5e-324
aF-5e-324
aF-5e-324
aF0.0
aF-1.2425241741571656e-31
aF-1.8012038591781473e-16
aF5e-324
aF-4.922149075745423e-37
aF0.0
aF-5e-324
aF-2.2857218512979342e-266
aF5.341885123771403e-95
aF-1.8474746031127677e-276
aF0.0
aF-2.676241003580161e-226
aF-5.005551694328779e-298
aF2.8807006849460245e-288
aF-3.226684454620196e-98
aF-7.304766530134624e-146
aF-1.0983825766267833e-21
aF0.0
aF-1.4728376429847675e-14
aF0.0
aF2.494122010566514e-19
aF-1.982649128034749e-31
aF-5.674616723076759e-220
aF1.4148256664939746e-71
aF-0.049565917625335174
aF-5e-324
aF-1.7971378505561825e-07
aF-1.4043717234881007e-115
aF1.6737290752559386e-76
aF-5.78689586335389e-245
aF-3.976222858085831e-256
aF-0.0010069390375879576
aF-3.299375016159249e-162
aF-2.4045440622092652e-11
aF-5.476859759474461e-228
aF-2.4904548277118195e-32
aF-1.802022323606827e-38
aF4.180865558876774e-36
aF-2.47612750275795e-309
aF-5e-324
aF-1.2093845529519013e-242
aF-3.919998943286048e-97
aF-1.0228679455464281e-42
aF-1.4667768936421861e-36
aF-1.1013962132096254e-91
aF-1.7283120602984677e-11
aF0.0
aF-2.596325560258539e-283
aF-1.2943883676830592e-33
aF2.357771615784094e-15
aF5e-324
aF5e-324
aF-0.011244744973637763
aF-2.2857218512979342e-266
aF-7.260242712624155e-11
aF-0.0020138810959960487
aF-5e-324
aF-1.5464521870487047e-63
aF-2.4044809746949362e-11
aF-2.5887767353661183e-33
aF0.0
aF-1.6918880093260801e-77
aF-5e-324
aF-1.8817746899864387e-25
aF-1.9454507623463974e-13
aF-3.9445846051014102e-53
aF-1.9863312955255156e-99
aF-0.0010069989421230747
aF-4.181084996437484e-18
aF-6.7845410644e-313
aF2.743893595588675e-103
aF9.41735564414174e-214
aF-0.021850583383764766
aF-5e-324
aF-9.01254770940092e-39
aF-9.188639028663315e-07
aF-5e-324
aF2.494122010566514e-19
aF-1.4841223728004237e-45
aF-2.1994745455322647e-79
aF-5.306706166476812e-29
aF-0.019580352736525856
aF-6.92678478662826e-216
aF-4.594319470690928e-07
aF-1.2425241741571656e-31
aF-3.3639718097710254e-12
aF0.0
aF0.0
aF-1.2593174723407816e-211
aF-1.3367905129586102e-113
aF-5.583379279712236e-210
aF-1.4841223728004237e-45
aF-5e-324
aF3.624366132852187e-53
aF0.0
aF3.575406335922616e-96
aF-1.055109759788388e-258
aF-2.0103266127030247e-85
aF-1.3971747805155829e-05
aF0.0
aF-3.5920970199391174e-17
aF-5e-324
aF-7.956712732283576e-07
aF-0.0030208201335840063
aF-4.4042352439255456e-111
aF-4.2204834133283674e-13
aF1.0395404305811053e-28
aF-2.9956264976561086e-22
aF-3.9846380455268274e-14
aF-7.1180998296120185e-208
aF-7.004219174244392e-33
aF-0.0061633921165379375
aF-7.386295090961451e-11
aF-0.005458191893241385
aF-0.021850583383764766
aF-4.729028050922279e-178
aF-0.021850583383764766
aF-2.7680805206620205e-235
aF4.3640711931058816e-15
aF-9.399030589183051e-24
aF0.0
aF-8.079311321516921e-160
aF5.747790579269427e-166
aF-5e-324
aF-8.1971996722848e-266
aF-5e-324
aF-5e-324
aF-2.5116988282854736e-177
aF-5e-324
aF-1.153541461098684e-140
aF-3.694095957620655e-141
aF-5.742407087454304e-307
aF-0.01652195601980585
aF-5e-324
aF-3.1185357153934164e-223
aF-7.110248623884747e-181
aF-8.459440046630401e-78
aF-1.1013962132096254e-91
aF0.0
aF-5.408226196032577e-214
aF1.0726229733997586e-95
aF-2.4321359193970643e-71
aF1.0395404305811053e-28
aF-1.6084785616155347e-50
aF-5e-324
aF-7.10042478689009e-269
aF7.28787724105434e-115
aF-2.2179177402789205e-203
aF-1.153541461098684e-140
aF5.237591230683274e-249
aF-8.505586485348969e-99
aF-1.1186314232442628e-109
aF-1.0212703715323449e-20
aF-0.021850583383764766
aF-6.67581459091451e-54
aF-1.8012038591781473e-16
aF-5e-324
aF-5.06274853136264e-09
aF-0.004997316737733073
aF-2.2021176224258185e-111
aF-4.978560370112652e-165
aF-1.1274696837261306e-228
aF5e-324
aF0.0
aF-1.9923190227634137e-14
aF-3.5585081803616795e-09
aF6.8983919580472795e-40
aF-3.1197608159314945e-73
aF-2.603558864081434e-305
aF0.0
aF-6.793635108624672e-14
aF-7.977339920327697e-85
aF-9.079480841274967e-240
aF-0.001086100355763957
aF-1.40548757943167e-05
aF-1.9916336567285182e-303
aF5e-324
aF-1.5399537405014798e-173
aF-0.0003194355987927717
aF-0.04956863480942936
aF-5e-324
aF-6.068836190318181e-215
aF-9.616250543734338e-25
aF-5.012007117120629e-91
aF9.396401062672922e-59
aF-6.198187272039429e-48
aF0.0
aF-1.2049215248490313e-189
aF-1.4043717234881007e-115
aF-2.6619231180844434e-86
aF5e-324
aF-9.153978489818761e-135
aF-1.1013962132096254e-91
aF0.0
aF-7.115849264084394e-31
aF-0.0015104100667920031
aF-1.0125831448683996e-08
aF0.0
aF5e-324
aF-3.694095957620655e-141
aF-1.46677669210501e-36
aF0.0
aF-5e-324
aF0.0
aF-5e-324
aF-1e-323
aF0.0
aF-2.1772581681917697e-123
aF-6.0946545801315925e-118
aF-5e-324
aF5.177957046252227e-24
aF-1.8476699939445283e-245
aF0.0
aF-4.458231558430803e-23
aF-2.4131322865081383e-115
aF4.999017863295891e-20
aF-5.138360771130656e-18
aF4.999017863295891e-20
aF3.769907867530607e-22
aF0.0
aF4.742291263273766e-103
aF-1.1112609653747978e-207
aF0.0
aF9.396401062692447e-59
aF-2.1753595829058714e-26
aF-5e-324
aF-2.2431484459823677e-44
aF-6.908907597821938e-75
aF2.0549832192576663e-74
aF6.8983919580472795e-40
aF-7.602997912659751e-25
aF0.0
aF-0.001510679100288562
aF-5e-324
aF-1.5987691025223465e-169
aF-2.4044809746949362e-11
aF-5e-324
aF-6.14430373935e-312
aF5e-324
aF0.0
aF-2.1464987285369666e-57
aF-9.063174942430784e-117
aF-5.54676090681965e-51
aF2.981072811584142e-138
aF-1.9287809562032107e-285
aF-5e-324
aF1.6737290752559386e-76
aF-1.7971378505561825e-07
aF-0.0030208201335840956
aF1.7075030217247743e-56
aF-4.5943195143621245e-07
aF5e-324
aF5e-324
aF-4.5994192703798244e-198
aF-6.478981393404215e-44
aF-0.0025582626893455
aF-1.3367905129586102e-113
aF-5e-324
aF-7.707437942424595e-143
aF-5e-324
aF-6.095861607607483e-18
aF-1.1013962132096254e-91
aF-5e-324
aF-1.6548204655375642e-15
aF-1.6548204655375642e-15
aF-2.1967651532535667e-21
aF-5e-324
aF0.0
aF-5e-324
aF1.0395404305811053e-28
aF1.0395404305811053e-28
aF-3.9938998371669955e-25
aF5e-324
aF-3.694095957620655e-141
aF-5e-324
aF-5.581957306883423e-47
aF-0.00017927947899393367
aF-5e-324
aF-5.711216547042796e-09
aF-5e-324
aF-5e-324
aF-2.225085623179258e-132
aF9.41735564414174e-214
aF-0.0813422311144291
aF-1.9873403064699263e-30
aF-4.4042352439255456e-111
aF-5e-324
aF5e-324
aF2.172287185434033e-108
aF-5e-324
aF-5.33226965729293e-06
aF-3.919998943286048e-97
aF-5e-324
aF-2.129118976849396e-180
aF0.0
aF-3.801498978407085e-25
aF1.6557051700182695e-68
aF0.0
aF-3.3646993972125337e-219
aF-7.318505650358653e-106
aF-1.0320985776018408e-126
aF-3.6303659312586276e-211
aF-0.00017927947899393367
aF0.0
aF5e-324
aF-3.3968175543134255e-14
aF-1.3282113536296215e-14
aF0.0
aF-3.972662591051031e-99
aF-5e-324
aF-3.396438931147519e-109
aF-3.3413129773690986e-08
aF-5e-324
aF-3.0744109913377983e-25
aF-1.4108530762983163e-41
aF-5e-324
aF-1.2012373883446355e-137
aF-5e-324
aF-8.096200950171289e-72
aF5e-324
aF-5e-324
aF-8.101301822968611e-44
aF3.9511140663963435e-44
aF-8.436929846856316e-42
aF0.0
aF-5e-324
aF-7.602997886771982e-25
aF-4.705238091798024e-72
aF-2.1664678821519304e-189
aF5e-324
aF-1.0983825766267833e-21
aF-1.4064995043412327e-221
aF-3.368428547528828e-241
aF-5.12499518618118e-21
aF-7.304766530134624e-146
aF-9.058840545558969e-80
aF-2.149145625793861e-80
aF8.728142386211763e-15
aF-7.462796141028711e-133
aF-5.54676090681965e-51
aF-5e-324
aF-1.5388616562957797e-293
aF0.0
aF0.0
aF2.6862874035251568e-163
aF-5e-324
aF-2.2291157792154015e-23
aF-3.9846380455268274e-14
aF-1.802022323606827e-38
aF2.743893595589152e-103
aF-1.0957443180366835e-30
aF-1.2038157211433101e-83
aF5e-324
aF0.0
aF-2.2158906741567753e-10
aF-5e-324
aF-4.181084996437484e-18
aF-1.121669051277524e-25
aF-2.8516785841384703e-209
aF-1.0254309452825812e-214
aF-9.998439459918422e-241
aF-5.78689586335389e-245
aF5e-324
aF0.0
aF-3.2132752971807494e-179
aF5e-324
aF0.0
aF-1.8012038591781473e-16
aF-5.399483088298831e-126
aF-4.3480724415573547e-10
aF-5e-324
aF-5e-324
aF-5e-324
aF5e-324
aF5e-324
aF-0.01092529740410337
aF-1.7468609230918458e-11
aF-3.5675711464545006e-30
aF-0.03339063138595762
aF-0.007283520510465997
aF-3.1424084553553203e-39
aF0.0
aF6.30875143288471e-16
aF-5e-324
aF-5e-324
aF0.0
aF-5.2152809849455674e-61
aF-2.8869543824645083e-99
aF-8.163217616107972e-138
aF-5e-324
aF-5e-324
aF-2.5116988282854736e-177
aF0.0
aF-1.2198446054367767e-57
aF-5e-324
aF0.0
aF-5e-324
aF-2.1740362207786774e-10
aF-3.3639718097710254e-12
aF0.0
aF-8.052383927537884e-248
aF-0.00022426126848976234
aF-1.7094445854285493e-165
aF3.2406396140532695e-294
aF-6.7845410644e-313
aF-5e-324
aF-5e-324
aF-5e-324
aF0.0
aF0.0
aF0.0
aF-4.760549293984086e-80
aF-5e-324
aF-9.153978489818761e-135
aF-2.4570742318429355e-27
aF-1.7094445854285493e-165
aF-1.9180527761716063e-09
aF-3.474267338560269e-11
aF-5e-324
aF-4.181084996437484e-18
aF-7.726247000544854e-125
aF-1.3160213745374965e-251
aF-3.9938998371669955e-25
aF0.0
aF-5e-324
aF-8.383110858671407e-06
aF-6.143779859206327e-281
aF-5e-324
aF-2.7394342586123883e-279
aF-5e-324
aF-5e-324
aF-2.4904548277118195e-32
aF-5e-324
aF-5e-324
aF-7.022524727997159e-116
aF-5e-324
aF-1.1580895585197636e-11
aF1.3009655203616422e-224
aF-1.3370989630274328e-207
aF3.4128786102967767e-34
aF2.0419947386738266e-175
aF-7.853711137465089e-270
aF-1.24252417415718e-31
aF-9.72725381162358e-14
aF-5e-324
aF-5e-324
aF-5e-324
aF-0.010916383782297326
aF1.2372655187934564e-17
aF-5e-324
aF-5e-324
aF-1.0076858856166794e-43
aF0.0
aF-5e-324
aF-2.1258657307976865e-166
aF0.0
aF-4.416521066022069e-305
aF-5e-324
aF1.313789199764192e-88
aF-5e-324
aF-5e-324
aF-4.804211652448633e-219
aF-5e-324
aF-3.5570811899113264e-48
aF-6.67581459091451e-54
aF0.0
aF3.397748406813326e-232
aF3.9511140663963435e-44
aF-0.003020822051636782
aF-2.8041757345042416e-26
aF-0.00017927947899393367
aF1.974274294961227e-56
aF-5e-324
aF-5e-324
aF-4.273958877268064e-63
aF-5e-324
aF0.0
aF2.743893595589152e-103
aF-5e-324
aF-1.2532022820234032e-70
aF-5e-324
aF-5e-324
aF5e-324
aF-2.4044809746949362e-11
aF-1.8012038591781473e-16
aF5e-324
aF-4.191528533138368e-05
aF-8.052383927537884e-248
aF-5.778949075553065e-285
aF0.0
aF-1e-323
aF-5e-324
aF1.6557051700182695e-68
aF-1.9053631485115694e-100
aF5e-324
aF-5e-324
aF-2.4904548277118195e-32
aF-1.6951116164718953e-121
aF-5e-324
aF-2.620832108322568e-54
aF-5.178786671613053e-08
aF1.4997068586956234e-19
aF0.0
aF-1.4528080346530303e-177
aF-2.1491456257907096e-80
aF-1.6961863005776606e-77
aF-5.816046884950414e-65
aF-7.977339920327697e-85
aF-5e-324
aF-3.919998943286048e-97
aF5e-324
aF-5e-324
aF-7.302945616631837e-190
aF5e-324
aF-1.1433130326849105e-08
aF-0.0011454469790314365
aF-5e-324
aF-8.247495073232227e-28
aF-8.882249401142417e-112
aF-5e-324
aF-1.619491717706484e-125
aF0.0
aF-0.0030208201335840063
aF-3.1185357153934164e-223
aF0.0
aF0.0
aF-1.0825415930944925e-230
aF-5e-324
aF-3.215553351200489e-172
aF-1.4728376429847675e-14
aF-2.5910174849801874e-148
aF-1.9005220325934623e-210
aF5e-324
aF-5e-324
aF0.0
aF-1.7283120602984677e-11
aF-5e-324
aF-4.978560370112652e-165
aF-0.0072918832068371315
aF0.0
aF0.0
aF0.0
aF-2.6007523163339526e-120
aF-5e-324
aF-0.0036430343665531696
aF-5e-324
aF-1.9079397132819012e-254
aF5e-324
aF-5e-324
aF-5e-324
aF-1.6918880093260801e-77
aF3.4150060434495485e-56
aF-1.9005220325934623e-210
aF-6.3772175990408425e-202
aF5e-324
aF-5e-324
aF-5e-324
aF-6.92678478662826e-216
aF-0.016384289254682178
aF-5e-324
aF-1.2226084192414677e-05
aF-0.0018274191514019813
aF0.0
aF-7.707437942424595e-143
aF-5e-324
aF-1.4064995043412327e-221
aF3.4128786102967767e-34
aF-2.2318692489408472e-110
aF-5e-324
aF-2.129118976849396e-180
aF-1.7971378505561825e-07
aF5e-324
aF0.0
aF1.6737290752559386e-76
aF-3.9938998371669955e-25
aF-5e-324
aF-0.004997316737733073
aF0.0
aF-0.013053594672017005
aF1.0800683350965741e-302
aF-9.399030589183051e-24
aF-3.972662591051031e-99
aF-0.009297401607068155
aF-0.00015967506393224764
aF-5.920958840477777e-43
aF-1.310416054161284e-54
aF-5e-324
aF5.348616381755015e-12
aF-1.4291094885934484e-124
aF-1.8012038591781473e-16
aF-1.235664713575439e-233
aF-5e-324
aF-2.416201292843373e-93
aF-5e-324
aF-1.619491717706484e-125
aF-2.03678861751e-312
aF-3.224101452243629e-157
aF-1.7673784243583967e-64
aF-7.977339920327697e-85
aF-5e-324
aF4.180865558876774e-36
aF-2.4570742318429355e-27
aF-5e-324
aF-1.405413521362532e-05
aF-0.0015104100667920031
aF7.772429915109881e-23
aF1.2277719679212805e-83
aF-5e-324
aF4.885624476621682e-292
aF-1.2425241951066652e-31
aF-8.398203197088683e-253
aF-5e-324
aF-5e-324
aF-3.8014989434773115e-25
aF-5e-324
aF-1.6918880093260801e-77
aF5e-324
aF-4.772740798540324e-55
aF-5e-324
aF-5e-324
aF-1.6548204655375642e-15
aF-5.352623834456059e-280
aF-7.33388346052505e-37
aF-2.1061704041758636e-277
aF-8.436929846856316e-42
aF-2.558592941174929e-142
aF0.0
aF-1.6212232126929454e-191
aF-5e-324
aF-1.6514294275983982e-134
aF-3.181264708462151e-267
aF3.709254387471196e-41
aF-5e-324
aF-1.0781345759196098e-188
aF-3.972662591051031e-99
aF-5e-324
aF-5e-324
aF-5e-324
aF2.1033446629256087e-202
aF-2.25837997652638e-208
aF-1.4667766843303845e-36
aF-9.590263880858031e-10
aF5e-324
aF-3.5585081803616795e-09
aF-5e-324
aF-4.031893183157197e-19
aF-2.333683990150593e-06
aF-2.3297697320034815e-238
aF-5e-324
aF1.523342547198532e-252
aF1.6117353745656626e-301
aF1.1557433322242807e-52
aF-4.5124048998974496e-169
aF-4.298291251581419e-80
aF-5e-324
aF-5e-324
aF-5e-324
aF-5e-324
aF0.0
aF-2.0251594967112763e-08
aF-5.230517118892594e-31
aF1.6174609396149756e-37
aF-5e-324
aF-0.0017814329415101581
aF-5e-324
aF-4.03739580734e-313
aF-2.5116988282854736e-177
aF-9.3773236289235e-311
aF-7.110248623884747e-181
aF-9.284102158385775e-158
aF-1.6918880093260801e-77
aF-5.91848164e-316
aF5e-324
aF-5e-324
aF7.794898892491e-142
aF-5e-324
aF-2.537995685833937e-292
aF-0.0020138810959960487
aF-3.185110365672254e-07
aF-2.2158906741567753e-10
aF-2.4904548277118195e-32
aF-2.5800068617069418e-23
aF0.0
aF-3.569520063931173e-61
aF-5e-324
aF-1.5e-323
aF-5e-324
aF-1.0640173573295926e-148
aF-1.0212703715323449e-20
aF-5e-324
aF-5e-324
aF-5e-324
aF-5e-324
aF-4.812697843529271e-288
aF-5e-324
aF3.2433568826111993e-26
aF-5.230516155597319e-31
aF5e-324
aF-1.2900034308534709e-23
aF-6.0992230271838834e-58
aF-5e-324
aF-0.0061633587033683174
aF-5e-324
aF-5e-324
aF0.0
aF-1.3367905129586102e-113
aF-1.1013962132096254e-91
aF-1.2834969547083674e-101
aF-5e-324
aF-2.25837997652638e-208
aF-2.1214232100705166e-299
aF-2.989797263465e-311
aF0.0
aF-1.168348352347e-312
aF-4.571728303449784e-217
aF-1.8853321452068338e-31
aF-3.656837577562936e-110
aF-1.714949184221354e-240
aF-9.399030589183051e-24
aF-1.503927815386373e-42
aF0.0
aF-5e-324
aF-1.1244034754309265e-30
aF-2.653353083238406e-29
aF-9.961595113916915e-15
aF-5e-324
aF-9.0560728522947e-91
aF-3.3413129773690986e-08
aF-5e-324
aF-1.2496509207609553e-39
aF-2.787391561838779e-18
aF0.0
aF-3.9938998371669955e-25
aF0.0
aF-1.2339839464444053e-145
aF-1.802022323606827e-38
aF-1.2049215248490313e-189
aF1.0861435927170164e-108
aF-5e-324
aF-3.919998943286048e-97
aF4.180865558876774e-36
aF-8.052383927537884e-248
aF-5e-324
aF-1.9180527761716063e-09
aF-2.4653250235028396e-102
aF5.716517928579482e-79
aF4.375271055932238e-62
aF-5.545513117747356e-135
aF0.0
aF-0.01092386718166815
aF4.186881019964732e-37
aF-0.003638790882836713
aF-1.2744504456691263e-176
aF1.932130666427941e-34
aF-3.149507375557423e-47
aF0.0
aF-5e-324
aF-1.1344259744905537e-153
aF-5e-324
aF-1.121669051277524e-25
aF2.8932191276184844e-15
aF-5e-324
aF-5.06274853136264e-09
aF0.0
aF-0.003021738997486873
aF-1.503927815386373e-42
aF5e-324
aF-0.0015104100667920031
aF-0.14569052151084363
aF-2.2182345887236696e-10
aF-2.5116988282854736e-177
aF-2.506445556675038e-243
aF-3.22411816313691e-229
aF-2.620832108322568e-54
aF0.0
aF-5e-324
aF0.0
aF1.313789199764192e-88
aF0.0
aF-5e-324
aF-8.759394610734675e-139
aF-1.503927815386373e-42
aF-5e-324
aF1.854627193735594e-41
aF8.674191918799422e-90
aF-9.884228030549724e-65
aF-5.42392671396627e-113
aF-2.734638972422912e-11
aF-2.5800068617069418e-23
aF5e-324
aF-1.945450762342403e-13
aF-1.4667766843303845e-36
aF9.217524353137153e-20
aF-5e-324
aF-5e-324
aF-8.1971996722848e-266
aF-5e-324
aF1.768695544771938e-24
aF5e-324
aF-2.0315524965228118e-172
aF-2.090542498218742e-18
aF-3.5585081803616795e-09
aF-2.1611947593137775e-286
aF6.72513786273125e-22
aF-2.1373392924803373e-42
aF0.0
aF-5e-324
aF-3.832217317704277e-58
aF-5e-324
aF-1.6547885585009905e-46
aF-5e-324
aF0.0
aF-5e-324
aF-7.462796141028711e-133
aF0.0
aF-5e-324
aF-1.1013962132096254e-91
aF-3.9938998371669955e-25
aF3.4128786102967767e-34
aF7.772429915109881e-23
aF-1.452048542527086e-10
aF-3.1197608159314945e-73
aF-5e-324
aF-3.224101452243629e-157
aF-5.213533505710463e-183
aF-0.0002129568529047819
aF2.0549832192576663e-74
aF5e-324
aF-5e-324
aF-9.3991933761416e-24
aF-0.0010069397508015835
aF-5e-324
aF-5e-324
aF0.0
aF-7.707437942424595e-143
aF-1.9005220325934623e-210
aF-5e-324
aF2.581973352546541e-124
aF0.0
aF-2.558592941174929e-142
aF-2.090542498218742e-18
aF-5e-324
aF5e-324
aF0.0
aF0.0
aF-3.474267338560269e-11
aF6.581086192523621e-308
aF-1.2012373883446355e-137
aF-1.06138742644419e-104
aF5e-324
aF-2.654353914223778e-63
aF-1.46677669210501e-36
aF-1.8476699939445283e-245
aF0.0
aF-5e-324
aF0.0
aF-1.2425241741571656e-31
aF-4.3187053660639297e-221
aF-1.8012038591781473e-16
aF-5e-324
aF-5e-324
aF-5e-324
aF-1.1344259744905537e-153
aF5e-324
aF-5e-324
aF-5e-324
aF-8.070551046501745e-204
aF-5e-324
aF5.507768711089125e-13
aF-3.474267338560269e-11
aF-5.408226196032577e-214
aF0.0
aF-2.220193953829769e-194
aF-5.213533505710463e-183
aF0.0
aF-0.04956591762869915
aF-2.055427730453527e-127
aF-4.2553062075550354e-243
aF-1.174067590431607e-96
aF-1.982649128034749e-31
aF-5.54676090681965e-51
aF-5e-324
aF5.237591230683274e-249
aF-6.0992230271838834e-58
aF-1.1079453370783877e-10
aF5e-324
aF-5e-324
aF-1.1274696837261306e-228
aF1.6737290752559386e-76
aF-5e-324
aF0.0
aF-1.7371336692801344e-11
aF0.0
aF1.069723276351003e-11
aF-3.644469986154146e-39
aF-2.0315524965228118e-172
aF-5e-324
aF-7.951140863950362e-06
aF-1.9079397132819012e-254
aF0.0
aF-3.215553351200489e-172
aF-5.083578032635022e-10
aF-5e-324
aF-1.4596069673433078e-111
aF4.1615229718370125e-42
aF0.0
aF-0.00011108892622013534
aF0.0
aF-4.978560370112652e-165
aF-5e-324
aF-8.197199672284864e-266
aF-5.5246e-320
aF-1.5846926446894763e-217
aF0.0
aF-1.3253172076986722e-237
aF-6.284856421851319e-39
aF2.22092118871209e-145
aF-2.25837997652638e-208
aF-1.4149948199766085e-186
aF-1.2532022820234032e-70
aF-0.0018274191514019813
aF1.6147335748932894e-116
aF-4.978560370112652e-165
aF5e-324
aF-4.667367980301186e-06
aF-1.4291094885934484e-124
aF-5.778949075553065e-285
aF-5.097920249762314e-306
aF6.30875143288471e-16
aF-3.9736173246040595e-05
aF-3.329870781463448e-215
aF0.0
aF-4.812697843529271e-288
aF2.6862874035251568e-163
aF-5e-324
aF-2.2021176224258185e-111
aF-4.978560370112652e-165
aF-6.0946545801315925e-118
aF-5e-324
aF-5e-324
aF-5e-324
aF0.0
aF-8.39225417874066e-244
aF-4.602642496476452e-85
aF-9.998439459918422e-241
aF-5e-324
aF0.0
aF-1.3213637750251006e-282
aF0.0
aF-5e-324
aF-5e-324
aF-1.8012038591781473e-16
aF-5e-324
aF-9.079480841274967e-240
aF5e-324
aF-0.0021832768611267585
aF0.0
aF-5e-324
aF-7.427579090193965e-55
aF-1.982649128034749e-31
aF-5e-324
aF3.2406396140532695e-294
aF-1.9443064717835105e-233
aF-2.232380962149651e-154
aF-2.8329506131510047e-134
aF-1.785109421050761e-117
aF0.0
aF-2.215890674178743e-10
aF-1.7371336692801344e-11
aF2.172287185434033e-108
aF6.227743988444436e-16
aF-1.9923190227634137e-14
aF2.3912079525982397e-119
aF-5e-324
aF-2.731985493233164e-85
aF-5e-324
aF3.3397341581363104e-12
aF-0.00020690199678424957
aF-5e-324
aF-5e-324
aF-1.2313640878415668e-141
aF-3.694095957620655e-141
aF-1.5399537405014798e-173
aF-6.12181277893407e-43
aF-3.134352802273811e-51
aF1.768695544771938e-24
aF-3.0429229688731017e-108
aF5e-324
aF-3.656837577562936e-110
aF-1.4291094885934484e-124
aF3.4150060434495485e-56
aF-3.9938998371669955e-25
aF-3.103856395880055e-29
aF-1.0640173573295926e-148
aF-3.309340992954304e-16
aF-2.4720833901596378e-195
aF-8.1971996722848e-266
aF-7.115849264084394e-31
aF-3.5585081803616795e-09
aF-3.1197608159314945e-73
aF2.0419947386738266e-175
aF-5e-324
aF-6.860553268353104e-63
aF5e-324
aF-1.2496509207609553e-39
aF0.0
aF1.6117353745656626e-301
aF-1.5399537405014798e-173
aF-5.528900933250664e-60
aF0.0
aF-6.440308765469405e-189
aF-0.00011920863894739163
aF-7.333884468210945e-37
aF-5e-324
aF-5.774676392666608e-197
aF-3.919998943286048e-97
aF-3.4999981122468245e-140
aF-8.552472753379622e-156
aF-1.390638566797352e-195
aF0.0
aF-5e-324
aF-5.138360771130656e-18
aF0.0
aF-1.6233230348916336e-288
aF2.226276700529982e-40
aF-1.810587917948038e-131
aF0.0
aF-1.4895839518613512e-129
aF-5e-324
aF-1.1013962132096254e-91
aF-1.0825415930944925e-230
aF-5e-324
aF-3.7795812913719997e-286
aF-5e-324
aF5e-324
aF0.0
aF-9.399030589183051e-24
aF-1.706357452603635e-196
aF-4.191528533138368e-05
aF-5e-324
aF5e-324
aF-2.1464987285369666e-57
aF-8.924678322571847e-293
aF-3.373213799506584e-30
aF-3.5585081803616795e-09
aF-9.551356486561491e-263
aF-0.0006388711975855434
aF-0.0006388711975855434
aF-5e-324
aF0.0
aF0.0
aF-5e-324
aF-1.022825378663478e-42
aF-5e-324
aF0.0
aF-6.908907597821938e-75
aF-5.325854672036294e-108
aF-5.408226196032577e-214
aF5e-324
aF-5e-324
aF-5e-324
aF1.523342547198532e-252
aF-1.1323864716358096e-245
aF4.9712045739798205e-47
aF-0.0061633587033683174
aF-5e-324
aF-5e-324
aF-9.11628781140118e-209
aF-5.667960458626302e-219
aF5e-324
aF-6.367800890630191e-70
aF0.0
aF-1.0640173573295926e-148
aF-1.8012038591781473e-16
aF-8.552472753379622e-156
aF0.0
aF-5e-324
aF-4.219743849597341e-40
aF-0.03916209302748271
aF1.2978913863783829e-166
aF0.0
aF-2.2158906741567753e-10
aF-4.180046006666284e-300
aF-1.0320985776018408e-126
aF-6.198187272039429e-48
aF-5e-324
aF-0.0061633587033683174
aF-1.055109759788388e-258
aF-5e-324
aF-5e-324
aF5e-324
aF-4.348823853635257e-33
aF3.5568372308358044e-71
aF-4.571728303449784e-217
aF-7.260242712624155e-11
aF-5e-324
aF-0.0061633587033683174
aF0.0
aF-5e-324
aF-3.0744109913377983e-25
aF-5e-324
aF-7.103698040844813e-62
aF4.9712045739798205e-47
aF-9.75614584668292e-298
aF5e-324
aF0.0
aF-0.001086100355763957
aF-3.976222858085831e-256
aF-1.2198446054367767e-57
aF9.62269039848879e-73
aF0.0
aF-2.620832108322568e-54
aF-9.188639028663315e-07
aF0.0
aF1.313789199764192e-88
aF-2.558592941174929e-142
aF0.0
aF0.0
aF-8.079311321518939e-160
aF-1.0076858856166794e-43
aF0.0
aF1.0131579536571853e-24
aF-5e-324
aF-5e-324
aF-3.801498978407085e-25
aF1.523342547198532e-252
aF-5e-324
aF-2.676241003580161e-226
aF-2.1258657307976865e-166
aF-5.106775568313089e-262
aF-5e-324
aF-2.4131322865081383e-115
aF5e-324
aF5e-324
aF0.0
aF-1.2198446054367767e-57
aF3.624370831052715e-53
aF4.364071193105467e-15
aF-5e-324
aF0.0
aF1.768695544771938e-24
aF-1.4728376429847675e-14
aF-5e-324
aF-2.5116988282854736e-177
aF-5e-324
aF-2.7524059695443407e-94
aF-5e-324
aF-6.2175101357911386e-105
aF-9.399030589183051e-24
aF-1.1274696837261306e-228
aF5e-324
aF-5e-324
aF-3.7795812913719997e-286
aF-6.29898596680972e-194
aF-3.9445846051014102e-53
aF-7.260325453658682e-11
aF1.67372907472355e-76
aF-5e-324
aF-5e-324
aF-5.54676090681965e-51
aF-3.9938998371669955e-25
aF-1.802022323606827e-38
aF-2.4452172130997046e-06
aF0.0
aF8.251835375889039e-218
aF6.489436616366946e-167
aF-4.571728303449784e-217
aF-2.5800068617069418e-23
aF-1.0228253817978322e-42
aF-4.563402330172035e-151
aF-1.0125831448683996e-08
aF-3.9938998371669955e-25
aF-0.04956863480942936
aF-1.7283120602984677e-11
aF-5e-324
aF-1.4149948199766085e-186
aF-4.298291251581661e-80
aF-3.042761648920031e-108
aF-0.024871414949377536
aF-0.021850583383764766
aF-1.1079453370783877e-10
aF-1.4149948199766085e-186
aF-3.5920970199391174e-17
aF5e-324
aF-7.955084233209003e-16
aF-1.3792615554235393e-150
aF-0.04856345860677459
aF-4.922149075745423e-37
aF0.0
aF-9.22372067150093e-179
aF-1.945450762342403e-13
aF-1.5026787925032491e-58
aF1.6737290752559386e-76
aF9.126929891676479e-86
aF-1.8627729734926263e-174
aF-5e-324
aF-8.204791331128562e-301
aF4.698174606023675e-59
aF-5e-324
aF-5e-324
aF5e-324
aF-5.323846236168887e-86
aF-4.768345557895665e-05
aF4.364071193105467e-15
aF-4.153655528874013e-68
aF6.30875143288471e-16
aF-2.1967651532535667e-21
aF-4.6026424964767876e-85
aF-7.977339920327697e-85
aF-4.153655528874013e-68
aF0.0
aF0.0
aF-1.945450762342403e-13
aF1.0726229733997586e-95
aF-7.602997886771982e-25
aF-2.3336839901506003e-06
aF-2.436008628208605e-42
aF-5e-324
aF-2.03678861751e-312
aF-5e-324
aF-1.2198446054367767e-57
aF-2.558592941174929e-142
aF-5e-324
aF-9.961595113817068e-15
aF-5e-324
aF2.250617836414124e-22
aF-0.019580352736525856
aF-0.0021739706382545966
aF5.4983888921502694e-70
aF-2.6518866507915944e-173
aF-1.1013962132096254e-91
aF-2.4653250235028396e-102
aF-5e-324
aF-2.107574473047615e-32
aF0.0
aF-1.9053631485115694e-100
aF1.0395404305811053e-28
aF1.6147335748932894e-116
aF-1.9969499185834977e-25
aF-1.390638566797352e-195
aF-0.00010647874588798978
aF-0.0025582626893455
aF-6.068836190318181e-215
aF-1.0228253817978322e-42
aF-7.225141494264839e-278
aF-5e-324
aF-2.8962480578765504e-262
aF-1.6435508374435653e-102
aF-2.2158906741567753e-10
aF-5e-324
aF-4.3480724415573547e-10
aF-5e-324
aF-0.00028200410725405013
aF-8.459440046630401e-78
aF-4.181084996437484e-18
aF-5e-324
aF0.0
aF-1.6548204655375642e-15
aF-5.167366088500302e-73
aF-5e-324
aF-8.383110858671407e-06
aF-5e-324
aF-2.008882223619012e-12
aF5.248797439553751e-209
aF-5.801183051705933e-65
aF-3.919998943286048e-97
aF-1.4043717234881007e-115
aF-2.989797263465e-311
aF-5e-324
aF-5e-324
aF2.226276700529982e-40
aF0.0
aF-3.329870781463448e-215
aF0.0
aF-4.154201356341752e-102
aF-4.154201356341752e-102
aF-1.3215754042391584e-97
aF-3.5401274196121717e-171
aF5e-324
aF0.0
aF-1.0825415930944925e-230
aF-5e-324
aF-8.552472753379622e-156
aF-5e-324
aF-8.759394626785273e-139
aF-1.2496509207609553e-39
aF1.6737290752559386e-76
aF-5e-324
aF6.72513786273125e-22
aF-5e-324
aF-5e-324
aF-2.445888001095473e-190
aF-5.78689586335389e-245
aF0.0
aF-5e-324
aF-2.1373392924803373e-42
aF-6.530709848061608e-286
aF2.172287185434033e-108
aF-1.5399537405014798e-173
aF-1.4596070076201637e-111
aF-5e-324
aF-4.1160928842097e-203
aF8.251835375889039e-218
aF0.0
aF-2.387156085387389e-98
aF8.373762039929465e-37
aF-9.643509614284638e-210
aF4.180865558876774e-36
aF-2.4458880010947657e-190
aF5e-324
aF-1.746594203144988e-06
aF-5e-324
aF-4.4775934076939635e-54
aF-3.919998943286048e-97
aF0.0
aF5e-324
aF0.0
aF0.0
aF-5e-324
aF5.747790579269427e-166
aF0.0
aF-5e-324
aF-5e-324
aF0.0
aF-5.399483088298831e-126
aF0.0
aF-5.43835909391333e-148
aF-5e-324
aF-3.3413129773690986e-08
aF-5e-324
aF1.8921441711985542e-69
aF1.545901780892649e-156
aF-5e-324
aF0.0
aF-3.146586953903598e-16
aF-1.1112609653747978e-207
aF-1.4728376428078983e-14
aF-5.399483088298831e-126
aF5e-324
aF1.0996777784300539e-69
aF-3.919998943286048e-97
aF-1.4043717234881007e-115
aF-5e-324
aF-5e-324
aF-5e-324
aF-5.8277622516845284e-294
aF-3.146586953903598e-16
aF-8.552472753379622e-156
aF-5e-324
aF-3.1197608159314945e-73
aF-4.273958877268064e-63
aF2.567746544597526e-107
aF5e-324
aF-9.339422962971003e-236
aF-5e-324
aF-5e-324
aF-2.1753595829058714e-26
aF5e-324
aF-3.1185357153934164e-223
aF-5e-324
aF0.0
aF-1.320985816895962e-282
aF-5e-324
aF1.313789199764192e-88
aF5.248797439553751e-209
aF0.0
aF-5.43835909391333e-148
aF-1.2496509207609553e-39
aF8.368645376279693e-77
aF-1.2198446054367767e-57
aF-2.558592941174929e-142
aF5e-324
aF-5e-324
aF-5e-324
aF-5e-324
aF-9.063174942430784e-117
aF-1.5581564295423739e-204
aF-1.3381219024450906e-141
aF-9.938323900223712e-56
aF-1.578002850509638e-11
aF6.581086192523621e-308
aF-1.8012038591781473e-16
aF-3.9846380455268274e-14
aF-8.552472753379622e-156
aF5e-324
aF-5e-324
aF5e-324
aF-4.4042352439255456e-111
aF-5e-324
aF-4.1160928842097e-203
aF-5e-324
aF-2.4904548278623e-32
aF-7.008604246000343e-128
aF-3.7346926e-317
aF5e-324
aF-1.1938485910525714e-77
aF9.41735564414174e-214
aF-5e-324
aF-1.4728376429847675e-14
aF-3.919998943286048e-97
aF-5.78689586335389e-245
aF-3.656837577562936e-110
aF0.0
aF-1.068669646240405e-42
aF-5e-324
aF5e-324
aF-1.6951116164718953e-121
aF5e-324
aF0.0
aF0.0
aF-3.919998943286048e-97
aF-1.351777033279457e-238
aF-5e-324
aF-5e-324
aF-9.260920456365566e-121
aF-4.1692205037265177e-50
aF-9.656083729297294e-82
aF-4.219743849597341e-40
aF-1.1013962132096254e-91
aF-9.058840545569967e-80
aF-8.505586485348969e-99
aF-5e-324
aF-3.1185357153934164e-223
aF-5e-324
aF-0.01652463696330681
aF-1.1915263711846771e-167
aF-1.5399537405014798e-173
aF-1.320985816895962e-282
aF-5.78689586335389e-245
aF-5e-324
aF-0.003081679351684986
aF-5e-324
aF-1.7705599512329527e-13
aF1.0833181168423312e-82
aF-5e-324
aF-5e-324
aF-1.351777033279457e-238
aF-8.552472753379622e-156
aF-1.2226084172491495e-05
aF-3.41804211419484e-184
aF-5e-324
aF-5e-324
aF-5e-324
aF-5e-324
aF-4.3875870673567986e-142
aF5e-324
aF-1.8019104143883416e-73
aF0.0
aF-5.78689586335389e-245
aF-7.602997899715867e-25
aF0.0
aF-5.528900933250664e-60
aF-3.919998943286048e-97
aF-5e-324
aF0.0
aF-8.338441007453035e-50
aF-7.42061186403456e-46
aF-0.01966367029513447
aF5e-324
aF-0.0007719047529993756
aF-1.7371336692801344e-11
aF-0.001232733049335937
aF-5e-324
aF-7.386294860887003e-11
aF-1.0161995768809725e-35
aF-0.0002317758556605673
aF-5.1266348161574216e-11
aF2.1033446629256087e-202
aF0.0
aF-0.009198060689092265
aF-5e-324
aF-4.207352501588429e-67
aF-2.1753595829058714e-26
aF5e-324
aF-0.00018508563028827395
aF-0.015465978492097096
aF-0.0009885949127430372
aF-2.354281789278135e-58
aF-2.8582825817122764e-09
aF-1.5239654019020008e-18
aF-0.0020743286449532747
aF-5e-324
aF-0.025288741186235735
aF-0.0020544508466698716
aF-2.7093384156975255e-81
aF-4.154201356341752e-102
aF-5e-324
aF-4.431781345313934e-11
aF-5.035496472493993e-187
aF-5e-324
aF-0.014765806068291455
aF-5.131876012429997e-18
aF-1.1576637467245769e-08
aF3.1024057295036907e-227
aF-3.437283705586994e-08
aF1.037692918857773e-103
aF5e-324
aF3.3474581505118774e-77
aF-5e-324
aF-5e-324
aF5e-324
aF-2.6901809919835643e-204
aF-1.803584143463604e-73
aF-1.7792540901808397e-09
aF-3.047930801981296e-18
aF-1.6120507261218146e-157
aF-0.0015435927452007565
aF0.0
aF-1.3948622616642184e-10
aF2.4016249053374076e-245
aF2.0272719181973614e-246
aF-0.023894869320607658
aF5e-324
aF-0.00035855895798786734
aF-0.0005793258764820899
aF-6.481015091590129e-234
aF2.1679576242215054e-114
aF-3.4909466316158264e-105
aF7.512595570138087e-17
aF-6.832017593170688e-26
aF-2.1753595829058714e-26
aF-0.0007704198379210397
aF0.0
aF1.2978913863783829e-166
aF-2.2866260653698198e-09
aF-0.004088470322256294
aF-4.755010807627753e-32
aF4.158161722324269e-29
aF-1.0099931748078958e-33
aF-4.812697843529271e-288
aF-1.537431993398073e-07
aF-5.122268591963611e-05
aF-1.7435039620647766e-31
aF5e-324
aF6.30875143288471e-16
aF-2.5065513720700095e-43
aF-5.605278661420266e-13
aF-3.476850513104385e-61
aF-0.014455190444836159
aF-4.937207077780726e-10
aF-6.3674656091138385e-34
aF0.0
aF-0.0020620947297395565
aF-0.0043449562057391675
aF-3.0053575850065085e-59
aF-3.1958732058651575e-180
aF8.373762039929465e-37
aF-2.6489654119534743e-13
aF-1.48753235755526e-310
aF4.698200531336461e-59
aF-2.4321359193970643e-71
aF2.468107911436494e-247
aF-5.289866561234297e-10
aF-0.001323324657864191
aF-1.0026190449001863e-42
aF-0.0007139016772024126
aF-0.010867897247890201
aF-2.3629546444112175e-169
aF-0.0026955201727722404
aF5.654867431421286e-22
aF-1.703000297696536e-08
aF1.613722921234382e-231
aF-5e-324
aF-8.954e-320
aF-2.0144434730167476e-11
aF-2.1451423313001718e-36
aF-6.148821982675599e-26
aF-1.5026787925032491e-58
aF0.0
aF5.177957046252227e-24
aF1.0395404305811053e-28
aF-1.3242195394628136e-99
aF4.608762176569232e-20
aF-5e-324
aF-8.247495073232227e-28
aF-7.519639076931865e-43
aF-0.008348465573977157
aF-0.0010272285050342107
aF-8.126209986091263e-173
aF-2.899217352031746e-33
aF-2.993004066048638e-222
aF-0.0034981217164131865
aF7.009716804592526e-17
aF5.047001146307761e-17
aF-7.45810627467016e-12
aF-5e-324
aF5e-324
aF-5e-324
aF0.0
aF-1.6918880093260801e-77
aF5e-324
aF-1.724176409815977e-05
aF-5.775383199654297e-37
aF0.0
aF-5e-324
aF2.4299030537185003e-27
aF-0.0030991330165579265
aF-4.926517883829846e-223
aF-2.2021176219627728e-111
aF-4.6384234568426203e-51
aF-5e-324
aF0.0
aF-6.793635108624672e-14
aF-1.5239654019043672e-18
aF2.5957827727567687e-167
aF5e-324
aF-0.002448332388782259
aF-2.050981280298465e-11
aF-2.317562755776612e-11
aF3.3457802224192964e-218
aF-3.2394906967021075e-44
aF-5e-324
aF-3.785376999630879e-132
aF-5e-324
aF-2.173835895034501e-07
aF-1.6918880093260801e-77
aF-1.788447097604943e-161
aF-5e-324
aF-2.174265401213057e-44
aF-5e-324
aF5.507789616513166e-13
aF-1.8621373312129217e-16
aF-0.011660836517394729
aF-7.425662981535091e-55
aF-5.326947475880629e-74
aF-1.6918880093260801e-77
aF-0.014008249256270313
aF-2.0628650928720752e-28
aF2.5908073808933188e-23
aF-5e-324
aF-0.004370177836145338
aF-1.6990790927800075e-28
aF-4.279395689766318e-32
aF-5.167366088500302e-73
aF-0.0037345521131636763
aF-5e-324
aF-5e-324
aF-5e-324
aF-0.0005458226552588007
aF-5e-324
aF-2.941901310720868e-68
aF-5e-324
aF-5e-324
aF1.0800683350965741e-302
aF-5e-324
aF-4.64778035309993e-27
aF1.5323148200650735e-98
aF2.6862874035251568e-163
aF-5.975994585096392e-05
aF-9.656083729297294e-82
aF-0.005957002960638635
aF-5e-324
aF-4.993113060457824e-33
aF-0.0030151401030239435
aF2.7001708377414352e-303
aF5e-324
aF-1.4291402000879702e-09
aF3.671856072482993e-13
aF2.5915392310120315e-45
aF-3.474267338560269e-11
aF-0.00242586058855774
aF5e-324
aF-2.0332068731570297e-25
aF-5e-324
aF-2.349757647295763e-24
aF-7.260242712635407e-11
aF1.0800683350965741e-302
aF-3.847667612565458e-21
aF-1.6951116164718953e-121
aF1.4998518066230589e-22
aF-3.20280456549131e-219
aF-5e-324
aF-1.443669098166652e-197
aF1.613722921234382e-231
aF-1.503927815386373e-42
aF-0.013086967720132379
aF-3.474267338560269e-11
aF-2.191966678560386e-101
aF-0.0055537427053044255
aF1.750277103518154e-118
aF-0.004485971622443364
aF2.6862874035251568e-163
aF-5e-324
aF-8.787060613024622e-22
aF-1.3151813223175566e-101
aF-0.003485171680186428
aF3.671856072482993e-13
aF-0.00205428672445374
aF-2.4319871369921874e-11
aF-5e-324
aF-3.474267338560269e-11
aF8.06861460617191e-232
aF-9.608423304897267e-219
aF-0.0008820037731892554
aF2.5212776276846733e-240
aF-0.0012326784233138476
aF-0.0016168333483984922
aF-5e-324
aF-3.474267338560269e-11
aF-0.00035855895798786734
aF5e-324
aF-8.310088107843603e-11
aF-4.529375172111826e-07
aF-5e-324
aF-3.215553351200489e-172
aF5.3725749336312e-164
aF-2.3629546444112175e-169
aF-0.000684816948890012
aF2.494122010566514e-19
aF-2.5887767353661183e-33
aF-5e-324
aF-5e-324
aF-5e-324
aF-1.503927815386373e-42
aF5e-324
aF-6.205576745765861e-16
aF4.720957807478131e-13
aF-5.685381333465444e-12
aF-2.5318463097584047e-40
aF-5e-324
aF-5e-324
aF-1.7491261068867409e-289
aF-5e-324
aF1.6557051700182695e-68
aF-5e-324
aF-0.04462938454093552
aF-4.2527932426744845e-99
aF-0.0015408396758420794
aF-1.503927815386373e-42
aF1.5214030097847142e-269
aF6.659466477430798e-176
aF3.251939688271941e-114
aF-3.183501141891705e-07
aF-5e-324
aF-2.751668144674187e-08
aF0.0
aF-0.005462645863312528
aF-3.1655549403801444e-11
aF-5e-324
aF-1.851454288310705e-10
aF-9.023566892318236e-43
aF1.6737290752559386e-76
aF-2.198534691011408e-74
aF-6.622707476203666e-05
aF6.659466477430798e-176
aF0.0
aF-1.3613491679376662e-08
aF-0.00606466247070363
aF-0.01566428218923395
aF-1.1399945263830683e-165
aF-5e-324
aF-6.212620870785828e-32
aF5e-324
aF-4.728495367123107e-182
aF-5e-324
aF-0.0037928387694034366
aF-8.038883378001222e-173
aF-0.010856931226589787
aF-1.611984607517638e-09
aF0.0
aF-5e-324
aF-1.503927815386373e-42
aF-5e-324
aF7.885939291105888e-17
aF-6.0992230271838834e-58
aF-3.972156153378328e-57
aF-2.093437045541329e-264
aF-0.04699290788211853
aF-3.993949417245129e-25
aF-5e-324
aF-3.693158509896881e-11
aF4.851367417541386e-21
aF-3.476850513104385e-61
aF-0.004164530880627954
aF-1.5026787925032491e-58
aF-4.963238690497206e-09
aF-5e-324
aF-6.985894860325727e-06
aF-2.203130379303742e-194
aF-1.8606529912170426e-47
aF-3.630032944180467e-211
aF4.816476425322823e-38
aF-5e-324
aF-0.0016853061082872803
aF-7.358724082209799e-178
aF-0.01761799565324583
aF-6.733291198696557e-34
aF-2.069019961821104e-05
aF-0.018304944050207744
aF1.0395404305811053e-28
aF-1.2387687773387775e-19
aF-5.710081348688799e-12
aF-5e-324
aF-3.540127419611968e-171
aF3.676784362121558e-125
aF5.11603359839968e-275
aF-3.4909466316158264e-105
aF-4.944193779859763e-16
aF-9.41795680935521e-22
aF1.9431073944612597e-23
aF8.19787630095289e-265
aF-1.2093845529519013e-242
aF-5e-324
aF2.468107911436494e-247
aF-3.254041536181391e-254
aF-8.132301435727215e-58
aF1.9114268250142127e-24
aF-0.01681052172849806
aF-2.3629546444112175e-169
aF-0.022394553395588816
aF-4.95507510935511e-19
aF-1.6548204656844564e-15
aF1.6737290752559386e-76
aF-2.1753595829058714e-26
aF-0.03890978723547474
aF-3.057968260480002e-07
aF-5e-324
aF1.992100432433954e-185
aF-0.010472450803036645
aF-3.914375614406921e-11
aF-1.0006017385842875e-33
aF-0.00047862527740290684
aF-0.004366553809568038
aF0.0
aF3.430261171782937e-29
aF1.5214030097847142e-269
aF-0.005035493405416862
aF4.078212913518608e-102
aF-0.005458200392037272
aF5e-324
aF-0.01958035273657232
aF-0.01417947635402109
aF-4.2553062075550354e-243
aF-4.3504721622751504e-186
aF-7.187567433245987e-189
aF0.0
aF-0.03167137066215793
aF7.794898892491e-142
aF-0.0030816800951195752
aF-2.597923502663325e-10
aF-7.943346460547634e-145
aF-5e-324
aF-2.191966678560386e-101
aF-0.002725920350277721
aF-0.0005711419941278604
aF-5.568866101515723e-09
aF-0.010916383564893706
aF-0.0022068012717592726
aF-4.371370713296261e-129
aF-0.0013006211298215835
aF-1.3450184499863221e-117
aF-2.923646321654078e-21
aF-5.630031603379573e-14
aF-5e-324
aF-3.890901524684807e-14
aF-5e-324
aF9.012493034476107e-17
aF-5.1346778537426965e-08
aF-0.0005926177771345125
aF-3.2616999537530683e-91
aF-0.02132344808400598
aF-0.0027971721192470533
aF-5.491912883133917e-22
aF0.0
aF-5e-324
aF-5e-324
aF8.19787630095289e-265
aF2.8793577613458613e-15
aF-1.2013488164119936e-38
aF1.5925734481404146e-182
aF-2.1744677230687028e-91
aF-4.526385509656737e-09
aF2.3219014854193701e-66
aF-6.430785187200422e-15
aF-5e-324
aF5.286288541358062e-269
aF-1.6918880093260801e-77
aF-6.575906611587782e-101
aF-0.0030816793517040825
aF-1.3450184499863221e-117
aF-5e-324
aF-0.00629563414052154
aF-4.812697843529271e-288
aF-0.009757742135278438
aF1.7456284772423537e-15
aF-1.0245627280040342e-223
aF-2.755580303721999e-32
aF-5e-324
aF-5e-324
aF5e-324
aF-3.165555196960043e-11
aF-5e-324
aF-1.5909120085998433e-55
aF3.709254387471196e-41
aF-1.1938485910525714e-77
aF-5.1878397609086396e-05
aF8.242779284926229e-42
aF-8.101986142436502e-107
aF-2.27e-322
aF-8.966780699785812e-118
aF-0.005822606123967411
aF-0.00017927958978846746
aF-0.02623680536156711
aF-5e-324
aF2.2785745669397627e-88
aF-4.176641223997323e-09
aF-5e-324
aF-1.4050482436488124e-32
aF-1.296596563022808e-59
aF-5.538777837630571e-218
aF-1.353510407460864e-77
aF-4.5030096479454144e-17
aF-0.019582363446439655
aF-2.7025439770114827e-214
aF-5e-324
aF-2.1178151586811513e-65
aF-0.00015504606849878286
aF-8.20392512119386e-11
aF5.042555255369347e-240
aF5e-324
aF-0.0031880000163429885
aF-3.832217317704277e-58
aF-6.004006859914298e-17
aF-9.451987359317556e-05
aF-4.06479830752389e-35
aF-8.164402489564563e-236
aF-4.965828238813789e-100
aF-0.00011951953314296979
aF-5.343348231200843e-43
aF-9.399030591771825e-24
aF-5e-324
aF-1.3142950276224817e-260
aF-5e-324
aF5.841146616465287e-289
aF-6.188811831010221e-56
aF4.5571491338795164e-89
aF-0.007829298227415436
aF-0.031260203110649004
aF-7.38629485822813e-11
aF-0.0029161997308142095
aF-1.3160213745374965e-251
aF-2.605700503919811e-11
aF-0.02117996002083041
aF-1.0430561969875139e-60
aF-1.503927815386373e-42
aF-1.6835871912647347e-198
aF-2.6900368999726442e-117
aF1.621673279423365e-26
aF-7.5133939625162455e-59
aF-0.003646649434929559
aF0.0
aF-3.1781300728408295e-99
aF-2.6121005302471667e-154
aF-1.7760521523580842e-08
aF-9.656083729297294e-82
aF-1.158087954764309e-11
aF-0.00707414671352355
aF-5e-324
aF-1.979608989920792e-14
aF-6.9374251136373415e-84
aF0.0
aF-3.759819538465933e-43
aF-5e-324
aF-1.1433130326849105e-08
aF-0.0024653434813473275
aF-5e-324
aF1.5214030097847142e-269
aF-7.260258445570196e-11
aF-0.002878619362379214
aF-0.007934932460599339
aF-5e-324
aF-0.010133161010478198
aF-4.031277811891172e-243
aF5.372445876100989e-302
aF-1.5026787925032491e-58
aF-5e-324
aF-0.00016750155487812453
aF-0.04049163275618902
aF-2.725024059697672e-34
aF2.3219014854193701e-66
aF-4.218464923428158e-42
aF-3.5814721334146475e-57
aF0.0
aF8.673340295343881e-249
aF-5e-324
aF-2.203130379303742e-194
aF1.671907417096374e-76
aF-0.0020648575736447157
aF-0.003133815062063632
aF-0.003643111657362444
aF7.616712735971703e-253
aF-1.503927815386373e-42
aF-3.3880883796360673e-34
aF-0.006344217585223582
aF3.4091591454876844e-13
aF-0.0014555141698632857
aF4.336547397987045e-225
aF0.0
aF-3.1891124710981273e-155
aF-6.727931427824606e-13
aF-0.00042242238644563937
aF-1.503927815386373e-42
aF-0.05827620860433745
aF0.0
aF-4.95507510935511e-19
aF-5.2305171189001175e-31
aF-0.01772974613033584
aF-1.1655524503369057e-293
aF-5e-324
aF-2.9802159736847908e-05
aF-0.00013793473355501354
aF0.0
aF-8.143943736675255e-222
aF5.507789616514108e-13
aF-1.5583674192840974e-10
aF-0.001086100355763957
aF-5.7877477254920004e-08
aF-5e-324
aF-1.743503962801853e-31
aF-0.00560387458645445
aF-4.687807121420946e-15
aF0.0
aF-1.0549359623993363e-40
aF1.0395145428137504e-28
aF-1.1636477135563954e-105
aF5e-324
aF-3.4909466316158264e-105
aF-0.005458191782446853
aF1.2625233818659832e-202
aF-8.042839656018294e-06
aF-0.00738634097299053
aF-2.9802215134114753e-05
aF-5e-324
aF-7.386312872925597e-11
aF-0.013053594598154054
aF-0.006149126961490729
aF5.197702152905526e-29
aF-1.803584143463604e-73
aF-2.25837997652638e-208
aF-1.712697711089784e-302
aF-7.5133939625162455e-59
aF5e-324
aF-1.503927815386373e-42
aF-5e-324
aF-8.042839656018294e-06
aF-1.503927815386373e-42
aF-6.14430373935e-312
aF2.8960998441791984e-247
aF-5.9343232765787615e-127
aF-5e-324
aF-1.1274696837261306e-228
aF-0.017187363175568276
aF0.0
aF5e-324
aF-5e-324
aF-0.0005430501778819785
aF-0.0018274191514019813
aF-5e-324
aF-5.412707965472462e-231
aF-5e-324
aF-3.3132930192466805e-238
aF-5e-324
aF-5.54676090681965e-51
aF-1.6918880093260801e-77
aF-5e-324
aF5e-324
aF-5.4797886541417226e-80
aF4.027686334238602e-119
aF0.0
aF9.287605941677494e-67
aF-2.6183903667846263e-269
aF-1.4291412908561382e-09
aF2.311486664448789e-53
aF1.4977567796317305e-23
aF1.6737290752559386e-76
aF-1.2070104661621618e-82
aF-4.441124700571209e-112
aF-0.05221430007120532
aF-1.0217909824884068e-07
aF2.4941217930305573e-20
aF-0.0012714309443005085
aF-5e-324
aF-1.3312986144223878e-25
aF-4.4042352439255456e-111
aF-9.21313889454151e-10
aF-2.6521861282500203e-07
aF-0.017476774269487613
aF2.78955403785682e-77
aF-1.9969499185834977e-25
aF-2.88048580308093e-155
aF7.774625467661561e-45
aF5e-324
aF0.0
aF-5.239465925995075e-06
aF2.4082382126614114e-38
aF-1.5964892856378682e-100
aF1.592805805926684e-20
aF-9.350290814225524e-05
aF-3.776542911036737e-103
aF-2.3841727789478325e-05
aF-1.5026787925032491e-58
aF-3.474267338560269e-11
aF3.7453407119276126e-41
aF-1.0955300393486222e-46
aF-0.001559526030285151
aF-0.008187288804458969
aF-1.2425241741571656e-31
aF0.0
aF-1.2792964705874645e-142
aF-0.01146304624965106
aF-1.3450184499863221e-117
aF-5e-324
aF-0.05301091472388696
aF-5e-324
aF-3.118495569712468e-09
aF-0.02072870944902878
aF-6.48298281511404e-60
aF-0.03314755850550753
aF0.0
aF-2.465624744333314e-06
aF-1.286867241485541e-35
aF-0.07592694010996039
aF3.2349218792299553e-38
aF1.7075030217247743e-56
aF-5e-324
aF5e-324
aF-1.443400340778678e-287
aF5e-324
aF-2.436008628208605e-42
aF-9.100519838352862e-96
aF-0.0008040493158474766
aF-0.0049973167377684435
aF-9.01792071731802e-74
aF5e-324
aF5e-324
aF-1.2810979697607983e-237
aF-8.963973949696684e-05
aF3.1024057295036907e-227
aF-3.072151869673e-312
aF1.5214030097847142e-269
aF-7.86023207973259e-17
aF-0.0009593652977658754
aF1.6117353745656626e-301
aF5.778716661121403e-53
aF-7.519639076931865e-43
aF5.177957046252227e-24
aF-2.4904548277118195e-32
aF5.468451543214523e-121
aF-0.002033207337127754
aF5e-324
aF-0.0016657705801387782
aF-0.01408082310281251
aF1.9938630904926266e-17
aF-5e-324
aF5.042555255369347e-240
aF-1.0248026389756024e-25
aF-5.661932358179048e-246
aF-0.010343313384230012
aF-1.503927815386373e-42
aF-0.002893265473761796
aF-0.007832141111981581
aF-1.3470363824771678e-17
aF-5e-324
aF-0.02485669547754392
aF0.0
aF-1.0582834142123552e-11
aF-1.629829743558205e-05
aF1.7245979895118199e-40
aF1.0800683350965334e-302
aF-4.26436830220542e-05
aF-0.020671327211139706
aF0.0
aF-5e-324
aF-1.7166875823468713e-152
aF5e-324
aF-0.0381482758820631
aF-1.5372055086127817e-25
aF-0.0025039131083875853
aF-5e-324
aF-7.663441012643114e-08
aF-9.91601562671225e-30
aF5e-324
aF-0.0005037362825661849
aF-0.0012338605910672523
aF-1.7523432360256037e-46
aF-5.538777837630571e-218
aF-4.4317813483135535e-11
aF-2.558592941174929e-142
aF-0.004672200722217917
aF-2.062935214066124e-56
aF-0.0008804789342870881
aF-1.1079453370783922e-10
aF-2.3629546444112175e-169
aF5e-324
aF-5e-324
aF-5e-324
aF-2.25837997652638e-208
aF-0.005495398440022402
aF-0.0009096949916132874
aF-3.8953910738559347e-205
aF1.5771713824825266e-16
aF-0.0009333683539567649
aF-5.427218116157033e-07
aF-6.750524903140648e-09
aF5e-324
aF-1.1678307280557414e-175
aF-1.446936931397771e-08
aF-8.840674342571354e-08
aF-0.006313780663713384
aF-1.3280079923464199e-05
aF-0.007430173919721832
aF1.2364168927389347e-41
aF-0.0054313674162818825
aF-5.98964435356867e-49
aF3.030380962516215e-19
aF-3.2213927721430036e-14
aF-4.942114015274862e-65
aF-0.014465259677602654
aF-0.005841272852913078
aF-0.0007357917411525552
aF-5e-324
aF-4.2553062075550354e-243
aF-0.0015408396758420794
aF-0.01879487167821524
aF-0.00014691934894414433
aF-5e-324
aF-7.415267156863478e-10
aF-2.5116988282854736e-177
aF-7.685553570546591e-26
aF-9.608423304898917e-219
aF-3.6793620411048993e-178
aF-0.009115269723533992
aF-0.005535341231514366
aF-4.778262714172021e-09
aF-1.3179646753111187e-10
aF-6.689578474053363e-09
aF5e-324
aF-0.014278711812173973
aF-0.003072822739022642
aF-0.014897783996559498
aF-6.538896597209088e-06
aF-4.12921274087993e-20
aF-0.00037760251669792196
aF-0.003726620013467069
aF1.2364168927389347e-41
aF-0.014327613536097423
aF-1.3280079923464199e-05
aF-0.016663746871516526
aF-0.013886483499175222
aF-0.00032107267341048356
aF-3.5585081803616795e-09
aF-5e-324
aF-2.061873768307965e-28
aF-0.001040503594987164
aF-7.125904431973626e-13
aF-2.908537039105709e-09
aF-0.016002504423065986
aF-7.415267156863478e-10
aF-2.994822193001953e-49
aF-0.003687397109921132
aF-0.005655041242682797
aF-0.009811189030777337
aF-1.0044411118093522e-12
aF-5e-324
aF-9.647915871455273e-13
aF-7.004219174244392e-33
aF-0.005015425990219719
aF-0.0166637455367671
aF-0.009691040269899594
aF-0.005802417366100227
aF-0.00012167054686423966
aF-5e-324
aF-2.1276531037775177e-243
aF-6.538896597209088e-06
aF-0.004871821911549023
aF-2.5116988282854736e-177
aF-1.3160213745374965e-251
aF-0.007204876057871774
aF1.2364168927389347e-41
aF-0.02164725938172954
aF-9.003756662059514e-05
aF-0.01688753603745443
aF-0.006054753804508291
aF-0.0018198342687023015
aF-0.012392564678015203
aF-0.0001294392112815214
aF2.0272719181973614e-246
aF-0.003991767693988724
aF-1.0983825766267833e-21
aF-0.0076082376896718
aF0.0
aF-0.012167258187994166
aF-2.583683044250151e-73
aF-0.001555254519935437
aF-7.33388346052505e-37
aF-0.005788110280831907
aF-1.9180523239879444e-09
aF-0.011754662234139731
aF-9.078110240625862e-145
aF3.8873127338307804e-45
aF-2.0107087003808866e-07
aF-1.0044411118093522e-12
aF6.30875143288471e-16
aF-1.3379148978830641e-08
aF-0.0004730972834440078
aF-5.790457145158243e-12
aF-2.9070247299288016e-09
aF-1.2973671550693704e-57
aF-5.013091697954126e-43
aF1.9732662588847607e-12
aF1.4584222268870653e-62
aF-0.014720302920251319
aF-2.908533574184002e-09
aF-0.032186441103822155
aF0.0
aF-7.078671647486371e-20
aF-2.7459564415669583e-22
aF-0.0004120417556445934
aF1.2364168927389347e-41
aF-0.0003857798209574582
aF-1.0596603062507732e-17
aF3.387231731830127e-17
aF-0.020710037180375274
aF-0.000832887788727758
aF-0.014011923104520155
aF-3.3205184224788704e-15
aF-5.574656557136914e-09
aF-0.001019262684679112
aF-8.505586485348969e-99
aF-0.003695803809357965
aF-1.3179646754946393e-10
aF-0.00011951954472384966
aF-1.3347494229940678e-09
aF-5e-324
aF-5e-324
aF2.0272719181973614e-246
aF-2.1276531037775177e-243
aF-0.01636758591638476
aF-0.002249972470995093
aF-0.0017306113041688047
aF-9.595286086455514e-10
aF-1.8474746031127677e-276
aF-0.004064782560190798
aF-0.013755937061272176
aF-0.02349404207395342
aF-3.585589579878675e-05
aF-2.477537554677555e-19
aF-0.0061633587033683174
aF-3.7172274249402385e-207
aF-0.02176292541902656
aF-2.6900368999726442e-117
aF-0.015077306774115437
aF-0.00021524437989090212
aF-0.004470883809979582
aF1.7501084223728952e-62
aF4.2743381775462525e-16
aF-0.016532124520505613
aF-0.00600749857437528
aF5e-324
aF1.9918890908150167e-294
aF-5e-324
aF-7.008604246000343e-128
aF-0.013886482386881812
aF-0.00017779044755022715
aF0.0
aF-2.2245801470744076e-09
aF-0.008059386273258059
aF3.154375716442355e-16
aF5e-324
aF-0.0015306429332889412
aF-1.0811414581697342e-57
aF1.974274294961227e-56
aF-0.0018198342687023015
aF8.368645376279693e-77
aF-1.7047641787672124e-11
aF-1.1347637800782301e-144
aF-0.015900807959430854
aF-0.0007721167324451915
aF-0.004303369161562172
aF-0.003117482761631293
aF-6.951353796245386e-10
aF-0.0003679290471415336
aF-2.8952112012424297e-12
aF-7.246801896170394e-11
aF-1.1132986919768638e-250
aF-0.016507774489591558
aF-1.5557877709777355e-06
aF-0.0018368357673904654
aF-0.011065519304704995
aF-0.00015228432014372867
aF-1.6918880093260801e-77
aF-5.230517118892594e-31
aF-0.0005801208412090778
aF-0.0007529773380728395
aF1.5214030097847142e-269
aF-0.009112613491196374
aF2.69366927300911e-19
aF-8.070550476977281e-116
aF-3.2213927721430036e-14
aF-2.0846102518632589e-50
aF-0.01615850100191052
aF-0.0012493291844432298
aF-9.284546312192219e-22
aF1.7156749412260124e-51
aF-0.0030208201335840063
aF-1.0983825766267833e-21
aF-0.009463135972813017
aF-5.384409362112793e-93
aF-1.3280079923464199e-05
aF-5.022205559046761e-13
aF-1.9863312955255184e-100
aF-3.9846380455268245e-15
aF-0.00015432228924192656
aF-0.016123385907647423
aF6.30875143288471e-16
aF-8.274102327687821e-16
aF-1.0870181103893387e-10
aF-1.1347637800782301e-144
aF-0.0004038486667145941
aF8.578374706130062e-52
aF-0.0002877405360122132
aF1.7156749412260124e-51
aF-2.301321248238226e-85
aF-3.972662591051031e-99
aF1.2364168927389347e-41
aF-0.00028302233465777357
aF-0.003687397109921132
aF-0.01078838296536807
aF8.604701459603716e-227
aF-4.5131918556606e-17
aF-0.0002030463823071819
aF-2.0487286040739729e-13
aF-7.314756497511096e-10
aF-0.01033041686944498
aF-1.6372455665870347e-13
aF-0.002462888939326319
aF-0.00040609273870269747
aF-0.0020422497657166154
aF-1.3179646754946393e-10
aF-0.00015432228924192656
aF-0.00018439854069592023
aF-9.961595113817068e-15
aF-0.02801394208713308
aF-0.014272719036852812
aF-1.1347637800782301e-144
aF-1.5564271345458892e-06
aF-0.01723837088593859
aF-0.0166637455367671
aF-1.4493560311616368e-10
aF2.2383175168205013e-35
aF-0.007788761955861232
aF-2.908537039105709e-09
aF-1.3179646754946393e-10
aF-0.0058875998146996
aF-4.342834173200336e-12
aF3.489258513914593e-175
aF-1.503927815386373e-42
aF-0.00658369571630788
aF-4.657249268455375e-06
aF-0.014327613520861256
aF-0.019224323337424618
aF-2.1611947593137775e-286
aF-4.9580078130112e-30
aF-7.383532570082092e-12
aF-2.4450923709866205e-120
aF-1.0044411118093522e-12
aF-1.3038031338664141e-37
aF-6.531534550587638e-13
aF-1.6951116164718953e-121
aF-7.117016360723374e-10
aF5e-324
aF-0.0166637455367671
aF-1.0983422825463261e-11
aF-0.014327613520861256
aF-3.7164265554671257e-09
aF-0.0016304794153394597
aF-0.0026349543341382797
aF-6.891630950711287e-05
aF-0.0017288364190222285
aF-1.6982194655737595e-109
aF-0.02176292541902656
aF-0.0002830220609265525
aF-8.046331046414162e-304
aF-0.007711048591378698
aF-0.0001294392112815214
aF-0.0166637455367671
aF-6.029611823598463e-13
aF-5.480145308910943e-10
aF-0.002880678686077711
aF-0.0166637455367671
aF-1.3282113536295942e-14
aF-6.9374251136373415e-84
aF-0.0022587071618966124
aF1.2364168927389347e-41
aF-1.676432836228262e-07
aF-1.6918880093260801e-77
aF-1.5372054956688991e-25
aF-0.014897784005511117
aF-1.6918880093260801e-77
aF-0.00041307876528558516
aF-1.6918880093260801e-77
aF-0.005139993940147049
aF7.771721080753406e-77
aF-3.667603922376541e-12
aF-0.0010069390375879576
aF-0.0005746512035883812
aF-2.6900368999726442e-117
aF-1.6918880093260801e-77
aF-3.585589579878675e-05
aF-5e-324
aF-0.005341568702252108
aF-1.9913647310378502e-34
aF-0.00044619203387973944
aF3.154375716442355e-16
aF-0.003019373381607107
aF-8.584546030327933e-179
aF-0.00023905376246957527
aF-0.0020544508466698716
aF-0.014327613520861256
aF-7e-323
aF-0.0061633587033683174
aF-5.74992772914407e-13
aF-0.0027352089333583093
aF-1.1740675904319482e-96
aF-0.0018368357673904654
aF-1.66240402252683e-231
aF-1.3179646754946393e-10
aF-0.0013151345190517921
aF-0.0003112572164979768
aF-3.6793620411048993e-178
aF6.30875143288471e-16
aF-1.9863312955255156e-99
aF-8.052195354520059e-12
aF-0.00010371985306638624
aF-0.00028302206092358374
aF-5e-324
aF-1.6918880093260801e-77
aF-0.015931610051356754
aF7.498534295996315e-20
aF-0.020829681920958874
aF-3.7172274249402385e-207
aF2.1397115105625212e-290
aF-3.5189948557536627e-09
aF-1.1938485910525714e-77
aF-3.8153389559881284e-154
aF-1.6918880093260801e-77
aF-0.015664282189220488
aF-9.609558264725987e-113
aF-3.979491324013272e-78
aF2.3906492102990005e-84
aF5e-324
aF1.4997068586956234e-19
aF-1.6067920526345156e-05
aF-5e-324
aF-0.0024986583688665367
aF-1.2825558777854223e-20
aF-0.020325792307881955
aF-0.002182900360173624
aF4.375271055932238e-62
aF-0.012120472963067418
aF-3.0684298651984754e-85
aF-1.6918880093260801e-77
aF-1.6918880093260801e-77
asb.